(dp0
S'xylem'
p1
(lp2
I0
aI1
asS'limited'
p3
(lp4
I0
aI1
asS'hats'
p5
(lp6
I0
aI1
asS'advices'
p7
(lp8
I0
aI1
asS'mansion'
p9
(lp10
I0
aI1
asS'infominer'
p11
(lp12
I0
aI1
asS'escribi'
p13
(lp14
I0
aI1
asS'marching'
p15
(lp16
I0
aI1
asS'shure'
p17
(lp18
I0
aI1
asS'ebuilt'
p19
(lp20
I0
aI1
asS'lineupbut'
p21
(lp22
I0
aI1
asS'patches'
p23
(lp24
I0
aI1
asS'aug'
p25
(lp26
I0
aI1
asS'verdana'
p27
(lp28
I0
aI1
asS'charles'
p29
(lp30
I0
aI1
asS'qcyogab'
p31
(lp32
I0
aI1
asS'master'
p33
(lp34
I0
aI1
asS'sorry'
p35
(lp36
I0
aI1
asS'worth'
p37
(lp38
I0
aI1
asS'merchant'
p39
(lp40
I0
aI1
asS'hormone'
p41
(lp42
I0
aI1
asS'kent'
p43
(lp44
I0
aI1
asS'dabka'
p45
(lp46
I0
aI1
asS'quicktime'
p47
(lp48
I0
aI1
asS'dell'
p49
(lp50
I0
aI1
asS'ornaments'
p51
(lp52
I0
aI1
asS'dioxide'
p53
(lp54
I0
aI1
asS'jack'
p55
(lp56
I0
aI1
asS'bringing'
p57
(lp58
I0
aI1
asS'untowardness'
p59
(lp60
I0
aI1
asS'cnet'
p61
(lp62
I0
aI1
asS'clovers'
p63
(lp64
I0
aI1
asS'school'
p65
(lp66
I0
aI1
asS'frauenlob'
p67
(lp68
I0
aI1
asS'propecia'
p69
(lp70
I0
aI1
asS'clothed'
p71
(lp72
I0
aI1
asS'companies'
p73
(lp74
I0
aI1
asS'wednesday'
p75
(lp76
I0
aI1
asS'unrelated'
p77
(lp78
I0
aI1
asS'red'
p79
(lp80
I0
aI1
asS'enhance'
p81
(lp82
I0
aI1
asS'pentagram'
p83
(lp84
I0
aI1
asS'fuera'
p85
(lp86
I0
aI1
asS'force'
p87
(lp88
I0
aI1
asS'leaders'
p89
(lp90
I0
aI1
asS'netbeans'
p91
(lp92
I0
aI1
asS'tired'
p93
(lp94
I0
aI1
asS'miller'
p95
(lp96
I0
aI1
asS'consistent'
p97
(lp98
I0
aI1
asS'direct'
p99
(lp100
I0
aI1
asS'msdn'
p101
(lp102
I0
aI1
asS'cameron'
p103
(lp104
I0
aI1
asS'crave'
p105
(lp106
I0
aI1
asS'street'
p107
(lp108
I0
aI1
asS'follow'
p109
(lp110
I0
aI1
asS'chen'
p111
(lp112
I0
aI1
asS'machines'
p113
(lp114
I0
aI1
asS'blue'
p115
(lp116
I0
aI1
asS'established'
p117
(lp118
I0
aI1
asS'mpeg'
p119
(lp120
I0
aI1
asS'hide'
p121
(lp122
I0
aI1
asS'christ'
p123
(lp124
I0
aI1
asS'bedurftig'
p125
(lp126
I0
aI1
asS'asia'
p127
(lp128
I0
aI1
asS'tildes'
p129
(lp130
I0
aI1
asS'farooq'
p131
(lp132
I0
aI1
asS'new'
p133
(lp134
I0
aI1
asS'increasing'
p135
(lp136
I0
aI1
asS'told'
p137
(lp138
I0
aI1
asS'reporter'
p139
(lp140
I0
aI1
asS'daha'
p141
(lp142
I0
aI1
asS'men'
p143
(lp144
I0
aI1
asS'drew'
p145
(lp146
I0
aI1
asS'hundreds'
p147
(lp148
I0
aI1
asS'anthropology'
p149
(lp150
I0
aI1
asS'reported'
p151
(lp152
I0
aI1
asS'jcau'
p153
(lp154
I0
aI1
asS'kasichainula'
p155
(lp156
I0
aI1
asS'xfs'
p157
(lp158
I0
aI1
asS'property'
p159
(lp160
I0
aI1
asS'deloptes'
p161
(lp162
I0
aI1
asS'planmidsize'
p163
(lp164
I0
aI1
asS'k'
p165
(lp166
I0
aI1
asS'changed'
p167
(lp168
I0
aI1
asS'reports'
p169
(lp170
I0
aI1
asS'guide'
p171
(lp172
I0
aI1
asS'credit'
p173
(lp174
I0
aI1
asS'natures'
p175
(lp176
I0
aI1
asS'jozsi'
p177
(lp178
I0
aI1
asS'suitable'
p179
(lp180
I0
aI1
asS'changes'
p181
(lp182
I0
aI1
asS'offs'
p183
(lp184
I0
aI1
asS'tr'
p185
(lp186
I0
aI1
asS'weevil'
p187
(lp188
I0
aI1
asS'highly'
p189
(lp190
I0
aI1
asS'brought'
p191
(lp192
I0
aI1
asS'pound'
p193
(lp194
I0
aI1
asS'tp'
p195
(lp196
I0
aI1
asS'hindsight'
p197
(lp198
I0
aI1
asS'diederik'
p199
(lp200
I0
aI1
asS'telegraph'
p201
(lp202
I0
aI1
asS'bdsm'
p203
(lp204
I0
aI1
asS'finest'
p205
(lp206
I0
aI1
asS'indiana'
p207
(lp208
I0
aI1
asS'type'
p209
(lp210
I0
aI1
asS'tell'
p211
(lp212
I0
aI1
asS'hoffmann'
p213
(lp214
I0
aI1
asS'females'
p215
(lp216
I0
aI1
asS'populations'
p217
(lp218
I0
aI1
asS'successful'
p219
(lp220
I0
aI1
asS'brings'
p221
(lp222
I0
aI1
asS'yahoo'
p223
(lp224
I0
aI1
asS'award'
p225
(lp226
I0
aI1
asS'merle'
p227
(lp228
I0
aI1
asS'warm'
p229
(lp230
I0
aI1
asS'adult'
p231
(lp232
I0
aI1
asS'excellent'
p233
(lp234
I0
aI1
asS'hold'
p235
(lp236
I0
aI1
asS'nightline'
p237
(lp238
I0
aI1
asS'schreef'
p239
(lp240
I0
aI1
asS'hoax'
p241
(lp242
I0
aI1
asS'mf'
p243
(lp244
I0
aI1
asS'word'
p245
(lp246
I0
aI1
asS'rights'
p247
(lp248
I0
aI1
asS'setup'
p249
(lp250
I0
aI1
asS'work'
p251
(lp252
I0
aI1
asS'movies'
p253
(lp254
I0
aI1
asS'emitters'
p255
(lp256
I0
aI1
asS'install'
p257
(lp258
I0
aI1
asS'mr'
p259
(lp260
I0
aI1
asS'exceptions'
p261
(lp262
I0
aI1
asS'root'
p263
(lp264
I0
aI1
asS'example'
p265
(lp266
I0
aI1
asS'stagnated'
p267
(lp268
I0
aI1
asS'wang'
p269
(lp270
I0
aI1
asS'india'
p271
(lp272
I0
aI1
asS'want'
p273
(lp274
I0
aI1
asS'politike'
p275
(lp276
I0
aI1
asS'freshen'
p277
(lp278
I0
aI1
asS'david'
p279
(lp280
I0
aI1
asS'guarantee'
p281
(lp282
I0
aI1
asS'end'
p283
(lp284
I0
aI1
asS'turn'
p285
(lp286
I0
aI1
asS'verify'
p287
(lp288
I0
aI1
asS'effendi'
p289
(lp290
I0
aI1
asS'hot'
p291
(lp292
I0
aI1
asS'answer'
p293
(lp294
I0
aI1
asS'tangled'
p295
(lp296
I0
aI1
asS'config'
p297
(lp298
I0
aI1
asS'raffle'
p299
(lp300
I0
aI1
asS'lan'
p301
(lp302
I0
aI1
asS'rise'
p303
(lp304
I0
aI1
asS'earlier'
p305
(lp306
I0
aI1
asS'lab'
p307
(lp308
I0
aI1
asS'davis'
p309
(lp310
I0
aI1
asS'wrong'
p311
(lp312
I0
aI1
asS'law'
p313
(lp314
I0
aI1
asS'parallel'
p315
(lp316
I0
aI1
asS'attempt'
p317
(lp318
I0
aI1
asS'effective'
p319
(lp320
I0
aI1
asS'homeowners'
p321
(lp322
I0
aI1
asS'appreciate'
p323
(lp324
I0
aI1
asS'headquarters'
p325
(lp326
I0
aI1
asS'lasalle'
p327
(lp328
I0
aI1
asS'green'
p329
(lp330
I0
aI1
asS'ultimate'
p331
(lp332
I0
aI1
asS'goodbye'
p333
(lp334
I0
aI1
asS'democratic'
p335
(lp336
I0
aI1
asS'vfs'
p337
(lp338
I0
aI1
asS'order'
p339
(lp340
I0
aI1
asS'authoritai'
p341
(lp342
I0
aI1
asS'operations'
p343
(lp344
I0
aI1
asS'feedback'
p345
(lp346
I0
aI1
asS'office'
p347
(lp348
I0
aI1
asS'zeh'
p349
(lp350
I0
aI1
asS'fam'
p351
(lp352
I0
aI1
asS'kvim'
p353
(lp354
I0
aI1
asS'cltv'
p355
(lp356
I0
aI1
asS'london'
p357
(lp358
I0
aI1
asS'japan'
p359
(lp360
I0
aI1
asS'digest'
p361
(lp362
I0
aI1
asS'position'
p363
(lp364
I0
aI1
asS'personal'
p365
(lp366
I0
aI1
asS'ianson'
p367
(lp368
I0
aI1
asS'ziniewicz'
p369
(lp370
I0
aI1
asS'writing'
p371
(lp372
I0
aI1
asS'better'
p373
(lp374
I0
aI1
asS'sonya'
p375
(lp376
I0
aI1
asS'wellness'
p377
(lp378
I0
aI1
asS'easier'
p379
(lp380
I0
aI1
asS'theo'
p381
(lp382
I0
aI1
asS'diseases'
p383
(lp384
I0
aI1
asS'chromatography'
p385
(lp386
I0
aI1
asS'safe'
p387
(lp388
I0
aI1
asS'creditfix'
p389
(lp390
I0
aI1
asS'tzafrir'
p391
(lp392
I0
aI1
asS'jesus'
p393
(lp394
I0
aI1
asS'freetoday'
p395
(lp396
I0
aI1
asS'bank'
p397
(lp398
I0
aI1
asS'defected'
p399
(lp400
I0
aI1
asS'luhiv'
p401
(lp402
I0
aI1
asS'grammar'
p403
(lp404
I0
aI1
asS'meat'
p405
(lp406
I0
aI1
asS'arrested'
p407
(lp408
I0
aI1
asS'l'
p409
(lp410
I0
aI1
asS'virtuellen'
p411
(lp412
I0
aI1
asS'luca'
p413
(lp414
I0
aI1
asS'fitness'
p415
(lp416
I0
aI1
asS'debug'
p417
(lp418
I0
aI1
asS'carlos'
p419
(lp420
I0
aI1
asS'mean'
p421
(lp422
I0
aI1
asS'merciadri'
p423
(lp424
I0
aI1
asS'financial'
p425
(lp426
I0
aI1
asS'diane'
p427
(lp428
I0
aI1
asS'haber'
p429
(lp430
I0
aI1
asS'celebrating'
p431
(lp432
I0
aI1
asS'reader'
p433
(lp434
I0
aI1
asS'maria'
p435
(lp436
I0
aI1
asS'sounds'
p437
(lp438
I0
aI1
asS'whip'
p439
(lp440
I0
aI1
asS'network'
p441
(lp442
I0
aI1
asS'oprah'
p443
(lp444
I0
aI1
asS'god'
p445
(lp446
I0
aI1
asS'mason'
p447
(lp448
I0
aI1
asS'content'
p449
(lp450
I0
aI1
asS'daniel'
p451
(lp452
I0
aI1
asS'laia'
p453
(lp454
I0
aI1
asS'medicine'
p455
(lp456
I0
aI1
asS'got'
p457
(lp458
I0
aI1
asS'forth'
p459
(lp460
I0
aI1
asS'zonealarm'
p461
(lp462
I0
aI1
asS'associate'
p463
(lp464
I0
aI1
asS'sterlings'
p465
(lp466
I0
aI1
asS'free'
p467
(lp468
I0
aI1
asS'solution'
p469
(lp470
I0
aI1
asS'evil'
p471
(lp472
I0
aI1
asS'sensors'
p473
(lp474
I0
aI1
asS'wanted'
p475
(lp476
I0
aI1
asS'ponzi'
p477
(lp478
I0
aI1
asS'logging'
p479
(lp480
I0
aI1
asS'district'
p481
(lp482
I0
aI1
asS'days'
p483
(lp484
I0
aI1
asS'ist'
p485
(lp486
I0
aI1
asS'filter'
p487
(lp488
I0
aI1
asS'heck'
p489
(lp490
I0
aI1
asS'cpuinfo'
p491
(lp492
I0
aI1
asS'industrial'
p493
(lp494
I0
aI1
asS'designed'
p495
(lp496
I0
aI1
asS'shopper'
p497
(lp498
I0
aI1
asS'pandia'
p499
(lp500
I0
aI1
asS'thereof'
p501
(lp502
I0
aI1
asS'channels'
p503
(lp504
I0
aI1
asS'featured'
p505
(lp506
I0
aI1
asS'antarctic'
p507
(lp508
I0
aI1
asS'electronic'
p509
(lp510
I0
aI1
asS'rated'
p511
(lp512
I0
aI1
asS'service'
p513
(lp514
I0
aI1
asS'saopstenjima'
p515
(lp516
I0
aI1
asS'recruiting'
p517
(lp518
I0
aI1
asS'needed'
p519
(lp520
I0
aI1
asS'rates'
p521
(lp522
I0
aI1
asS'listed'
p523
(lp524
I0
aI1
asS'tom'
p525
(lp526
I0
aI1
asS'percentage'
p527
(lp528
I0
aI1
asS'john'
p529
(lp530
I0
aI1
asS'urban'
p531
(lp532
I0
aI1
asS'geneva'
p533
(lp534
I0
aI1
asS'tool'
p535
(lp536
I0
aI1
asS'serve'
p537
(lp538
I0
aI1
asS'took'
p539
(lp540
I0
aI1
asS'wisdom'
p541
(lp542
I0
aI1
asS'western'
p543
(lp544
I0
aI1
asS'somewhat'
p545
(lp546
I0
aI1
asS'uriw'
p547
(lp548
I0
aI1
asS'shortly'
p549
(lp550
I0
aI1
asS'messing'
p551
(lp552
I0
aI1
asS'target'
p553
(lp554
I0
aI1
asS'showed'
p555
(lp556
I0
aI1
asS'surrounding'
p557
(lp558
I0
aI1
asS'forensic'
p559
(lp560
I0
aI1
asS'matteo'
p561
(lp562
I0
aI1
asS'ebay'
p563
(lp564
I0
aI1
asS'matter'
p565
(lp566
I0
aI1
asS'silly'
p567
(lp568
I0
aI1
asS'williams'
p569
(lp570
I0
aI1
asS'historical'
p571
(lp572
I0
aI1
asS'hacking'
p573
(lp574
I0
aI1
asS'feeling'
p575
(lp576
I0
aI1
asS'bidder'
p577
(lp578
I0
aI1
asS'axyfipyvopo'
p579
(lp580
I0
aI1
asS'herbalists'
p581
(lp582
I0
aI1
asS'modern'
p583
(lp584
I0
aI1
asS'upset'
p585
(lp586
I0
aI1
asS'rohit'
p587
(lp588
I0
aI1
asS'kampajno'
p589
(lp590
I0
aI1
asS'seen'
p591
(lp592
I0
aI1
asS'searchnetworking'
p593
(lp594
I0
aI1
asS'avykyl'
p595
(lp596
I0
aI1
asS'tells'
p597
(lp598
I0
aI1
asS'ray'
p599
(lp600
I0
aI1
asS'gabriele'
p601
(lp602
I0
aI1
asS'convenient'
p603
(lp604
I0
aI1
asS'bugzilla'
p605
(lp606
I0
aI1
asS'realy'
p607
(lp608
I0
aI1
asS'causing'
p609
(lp610
I0
aI1
asS'luxury'
p611
(lp612
I0
aI1
asS'ywiukemowa'
p613
(lp614
I0
aI1
asS'bruce'
p615
(lp616
I0
aI1
asS'proving'
p617
(lp618
I0
aI1
asS'dinysumac'
p619
(lp620
I0
aI1
asS'mother'
p621
(lp622
I0
aI1
asS'wells'
p623
(lp624
I0
aI1
asS'victoria'
p625
(lp626
I0
aI1
asS'poker'
p627
(lp628
I0
aI1
asS'kelly'
p629
(lp630
I0
aI1
asS'regular'
p631
(lp632
I0
aI1
asS'plenty'
p633
(lp634
I0
aI1
asS'foundmoney'
p635
(lp636
I0
aI1
asS'macbook'
p637
(lp638
I0
aI1
asS'glow'
p639
(lp640
I0
aI1
asS'webcam'
p641
(lp642
I0
aI1
asS'johan'
p643
(lp644
I0
aI1
asS'richard'
p645
(lp646
I0
aI1
asS'medical'
p647
(lp648
I0
aI1
asS'devastating'
p649
(lp650
I0
aI1
asS'm'
p651
(lp652
I0
aI1
asS'wintermute'
p653
(lp654
I0
aI1
asS'definitely'
p655
(lp656
I0
aI1
asS'tech'
p657
(lp658
I0
aI1
asS'hettinga'
p659
(lp660
I0
aI1
asS'hdparm'
p661
(lp662
I0
aI1
asS'mailing'
p663
(lp664
I0
aI1
asS'came'
p665
(lp666
I0
aI1
asS'advisory'
p667
(lp668
I0
aI1
asS'selected'
p669
(lp670
I0
aI1
asS'lewis'
p671
(lp672
I0
aI1
asS'meetings'
p673
(lp674
I0
aI1
asS'nominated'
p675
(lp676
I0
aI1
asS'ryanjb'
p677
(lp678
I0
aI1
asS'latina'
p679
(lp680
I0
aI1
asS'strata'
p681
(lp682
I0
aI1
asS'moexejiq'
p683
(lp684
I0
aI1
asS'headline'
p685
(lp686
I0
aI1
asS'explain'
p687
(lp688
I0
aI1
asS'rubanda'
p689
(lp690
I0
aI1
asS'knuckle'
p691
(lp692
I0
aI1
asS'rick'
p693
(lp694
I0
aI1
asS'thema'
p695
(lp696
I0
aI1
asS'folks'
p697
(lp698
I0
aI1
asS'announce'
p699
(lp700
I0
aI1
asS'enewsletter'
p701
(lp702
I0
aI1
asS'personality'
p703
(lp704
I0
aI1
asS'dk'
p705
(lp706
I0
aI1
asS'scientists'
p707
(lp708
I0
aI1
asS'ips'
p709
(lp710
I0
aI1
asS'perceive'
p711
(lp712
I0
aI1
asS'mykola'
p713
(lp714
I0
aI1
asS'pocket'
p715
(lp716
I0
aI1
asS'supplier'
p717
(lp718
I0
aI1
asS'lenders'
p719
(lp720
I0
aI1
asS'report'
p721
(lp722
I0
aI1
asS'dekhnni'
p723
(lp724
I0
aI1
asS'hello'
p725
(lp726
I0
aI1
asS'rolexgmt'
p727
(lp728
I0
aI1
asS'guns'
p729
(lp730
I0
aI1
asS'twice'
p731
(lp732
I0
aI1
asS'architecture'
p733
(lp734
I0
aI1
asS'rung'
p735
(lp736
I0
aI1
asS'release'
p737
(lp738
I0
aI1
asS'automatic'
p739
(lp740
I0
aI1
asS'steef'
p741
(lp742
I0
aI1
asS'godo'
p743
(lp744
I0
aI1
asS'fair'
p745
(lp746
I0
aI1
asS'cliped'
p747
(lp748
I0
aI1
asS'recieve'
p749
(lp750
I0
aI1
asS'depends'
p751
(lp752
I0
aI1
asS'decided'
p753
(lp754
I0
aI1
asS'result'
p755
(lp756
I0
aI1
asS'christian'
p757
(lp758
I0
aI1
asS'foss'
p759
(lp760
I0
aI1
asS'best'
p761
(lp762
I0
aI1
asS'subject'
p763
(lp764
I0
aI1
asS'said'
p765
(lp766
I0
aI1
asS'tensor'
p767
(lp768
I0
aI1
asS'lots'
p769
(lp770
I0
aI1
asS'somerville'
p771
(lp772
I0
aI1
asS'away'
p773
(lp774
I0
aI1
asS'gentleman'
p775
(lp776
I0
aI1
asS'mug'
p777
(lp778
I0
aI1
asS'unable'
p779
(lp780
I0
aI1
asS'melissa'
p781
(lp782
I0
aI1
asS'petr'
p783
(lp784
I0
aI1
asS'approach'
p785
(lp786
I0
aI1
asS'letting'
p787
(lp788
I0
aI1
asS'terms'
p789
(lp790
I0
aI1
asS'wears'
p791
(lp792
I0
aI1
asS'wo'
p793
(lp794
I0
aI1
asS'reservedif'
p795
(lp796
I0
aI1
asS'weak'
p797
(lp798
I0
aI1
asS'annonces'
p799
(lp800
I0
aI1
asS'boss'
p801
(lp802
I0
aI1
asS'vernon'
p803
(lp804
I0
aI1
asS'news'
p805
(lp806
I0
aI1
asS'debt'
p807
(lp808
I0
aI1
asS'kiall'
p809
(lp810
I0
aI1
asS'hours'
p811
(lp812
I0
aI1
asS'goddess'
p813
(lp814
I0
aI1
asS'disdain'
p815
(lp816
I0
aI1
asS'country'
p817
(lp818
I0
aI1
asS'ill'
p819
(lp820
I0
aI1
asS'kroeger'
p821
(lp822
I0
aI1
asS'space'
p823
(lp824
I0
aI1
asS'webex'
p825
(lp826
I0
aI1
asS'spurs'
p827
(lp828
I0
aI1
asS'nameserver'
p829
(lp830
I0
aI1
asS'murcko'
p831
(lp832
I0
aI1
asS'asked'
p833
(lp834
I0
aI1
asS'vadkan'
p835
(lp836
I0
aI1
asS'packaged'
p837
(lp838
I0
aI1
asS'quinn'
p839
(lp840
I0
aI1
asS'tony'
p841
(lp842
I0
aI1
asS'trust'
p843
(lp844
I0
aI1
asS'hitler'
p845
(lp846
I0
aI1
asS'asks'
p847
(lp848
I0
aI1
asS'basis'
p849
(lp850
I0
aI1
asS'fri'
p851
(lp852
I0
aI1
asS'grupom'
p853
(lp854
I0
aI1
asS'basic'
p855
(lp856
I0
aI1
asS'flexible'
p857
(lp858
I0
aI1
asS'entered'
p859
(lp860
I0
aI1
asS'quickslim'
p861
(lp862
I0
aI1
asS'website'
p863
(lp864
I0
aI1
asS'africaare'
p865
(lp866
I0
aI1
asS'life'
p867
(lp868
I0
aI1
asS'toplinks'
p869
(lp870
I0
aI1
asS'beloved'
p871
(lp872
I0
aI1
asS'concerning'
p873
(lp874
I0
aI1
asS'uncommon'
p875
(lp876
I0
aI1
asS'dave'
p877
(lp878
I0
aI1
asS'lift'
p879
(lp880
I0
aI1
asS'child'
p881
(lp882
I0
aI1
asS'diskeeper'
p883
(lp884
I0
aI1
asS'palladium'
p885
(lp886
I0
aI1
asS'colored'
p887
(lp888
I0
aI1
asS'scotsman'
p889
(lp890
I0
aI1
asS'east'
p891
(lp892
I0
aI1
asS'hyperactive'
p893
(lp894
I0
aI1
asS'tang'
p895
(lp896
I0
aI1
asS'n'
p897
(lp898
I0
aI1
asS'dept'
p899
(lp900
I0
aI1
asS'evening'
p901
(lp902
I0
aI1
asS'neat'
p903
(lp904
I0
aI1
asS'wegley'
p905
(lp906
I0
aI1
asS'kiff'
p907
(lp908
I0
aI1
asS'voice'
p909
(lp910
I0
aI1
asS'settler'
p911
(lp912
I0
aI1
asS'launched'
p913
(lp914
I0
aI1
asS'ip'
p915
(lp916
I0
aI1
asS'kohn'
p917
(lp918
I0
aI1
asS'ii'
p919
(lp920
I0
aI1
asS'pharm'
p921
(lp922
I0
aI1
asS'il'
p923
(lp924
I0
aI1
asS'iegd'
p925
(lp926
I0
aI1
asS'gianni'
p927
(lp928
I0
aI1
asS'mouse'
p929
(lp930
I0
aI1
asS'id'
p931
(lp932
I0
aI1
asS'containing'
p933
(lp934
I0
aI1
asS'bottles'
p935
(lp936
I0
aI1
asS'severity'
p937
(lp938
I0
aI1
asS'things'
p939
(lp940
I0
aI1
asS'democracies'
p941
(lp942
I0
aI1
asS'warsaw'
p943
(lp944
I0
aI1
asS'european'
p945
(lp946
I0
aI1
asS'wheel'
p947
(lp948
I0
aI1
asS'fairly'
p949
(lp950
I0
aI1
asS'satellite'
p951
(lp952
I0
aI1
asS'saddam'
p953
(lp954
I0
aI1
asS'hang'
p955
(lp956
I0
aI1
asS'nid'
p957
(lp958
I0
aI1
asS'delight'
p959
(lp960
I0
aI1
asS'exmh'
p961
(lp962
I0
aI1
asS'characters'
p963
(lp964
I0
aI1
asS'luned'
p965
(lp966
I0
aI1
asS'opportunity'
p967
(lp968
I0
aI1
asS'kid'
p969
(lp970
I0
aI1
asS'linksys'
p971
(lp972
I0
aI1
asS'lucas'
p973
(lp974
I0
aI1
asS'dersiniz'
p975
(lp976
I0
aI1
asS'thu'
p977
(lp978
I0
aI1
asS'drip'
p979
(lp980
I0
aI1
asS'savings'
p981
(lp982
I0
aI1
asS'client'
p983
(lp984
I0
aI1
asS'greatest'
p985
(lp986
I0
aI1
asS'humbly'
p987
(lp988
I0
aI1
asS'alarms'
p989
(lp990
I0
aI1
asS'claims'
p991
(lp992
I0
aI1
asS'corporate'
p993
(lp994
I0
aI1
asS'yeh'
p995
(lp996
I0
aI1
asS'bugger'
p997
(lp998
I0
aI1
asS'solaris'
p999
(lp1000
I0
aI1
asS'popescu'
p1001
(lp1002
I0
aI1
asS'yea'
p1003
(lp1004
I0
aI1
asS'laptop'
p1005
(lp1006
I0
aI1
asS'rodent'
p1007
(lp1008
I0
aI1
asS'quotes'
p1009
(lp1010
I0
aI1
asS'thanks'
p1011
(lp1012
I0
aI1
asS'human'
p1013
(lp1014
I0
aI1
asS'yep'
p1015
(lp1016
I0
aI1
asS'yes'
p1017
(lp1018
I0
aI1
asS'lefevre'
p1019
(lp1020
I0
aI1
asS'enlighten'
p1021
(lp1022
I0
aI1
asS'hah'
p1023
(lp1024
I0
aI1
asS'adding'
p1025
(lp1026
I0
aI1
asS'buyers'
p1027
(lp1028
I0
aI1
asS'defrag'
p1029
(lp1030
I0
aI1
asS'royal'
p1031
(lp1032
I0
aI1
asS'lotto'
p1033
(lp1034
I0
aI1
asS'pharmacy'
p1035
(lp1036
I0
aI1
asS'elz'
p1037
(lp1038
I0
aI1
asS'mcnamara'
p1039
(lp1040
I0
aI1
asS'board'
p1041
(lp1042
I0
aI1
asS'easy'
p1043
(lp1044
I0
aI1
asS'zillion'
p1045
(lp1046
I0
aI1
asS'ethnobotanical'
p1047
(lp1048
I0
aI1
asS'save'
p1049
(lp1050
I0
aI1
asS'gave'
p1051
(lp1052
I0
aI1
asS'opt'
p1053
(lp1054
I0
aI1
asS'mayo'
p1055
(lp1056
I0
aI1
asS'egad'
p1057
(lp1058
I0
aI1
asS'possible'
p1059
(lp1060
I0
aI1
asS'cultural'
p1061
(lp1062
I0
aI1
asS'background'
p1063
(lp1064
I0
aI1
asS'destroy'
p1065
(lp1066
I0
aI1
asS'wojciech'
p1067
(lp1068
I0
aI1
asS'dreams'
p1069
(lp1070
I0
aI1
asS'vanity'
p1071
(lp1072
I0
aI1
asS'desire'
p1073
(lp1074
I0
aI1
asS'daemon'
p1075
(lp1076
I0
aI1
asS'bobby'
p1077
(lp1078
I0
aI1
asS'rossum'
p1079
(lp1080
I0
aI1
asS'lasat'
p1081
(lp1082
I0
aI1
asS'specific'
p1083
(lp1084
I0
aI1
asS'officer'
p1085
(lp1086
I0
aI1
asS'night'
p1087
(lp1088
I0
aI1
asS'security'
p1089
(lp1090
I0
aI1
asS'awesome'
p1091
(lp1092
I0
aI1
asS'webb'
p1093
(lp1094
I0
aI1
asS'www'
p1095
(lp1096
I0
aI1
asS'hunt'
p1097
(lp1098
I0
aI1
asS'old'
p1099
(lp1100
I0
aI1
asS'obavesten'
p1101
(lp1102
I0
aI1
asS'deal'
p1103
(lp1104
I0
aI1
asS'people'
p1105
(lp1106
I0
aI1
asS'successfully'
p1107
(lp1108
I0
aI1
asS'excerpt'
p1109
(lp1110
I0
aI1
asS'weatheror'
p1111
(lp1112
I0
aI1
asS'printer'
p1113
(lp1114
I0
aI1
asS'dear'
p1115
(lp1116
I0
aI1
asS'multiple'
p1117
(lp1118
I0
aI1
asS'tripped'
p1119
(lp1120
I0
aI1
asS'knoppix'
p1121
(lp1122
I0
aI1
asS'fox'
p1123
(lp1124
I0
aI1
asS'comments'
p1125
(lp1126
I0
aI1
asS'asking'
p1127
(lp1128
I0
aI1
asS'cnn'
p1129
(lp1130
I0
aI1
asS'cumplimiento'
p1131
(lp1132
I0
aI1
asS'beating'
p1133
(lp1134
I0
aI1
asS'christmas'
p1135
(lp1136
I0
aI1
asS'core'
p1137
(lp1138
I0
aI1
asS'xander'
p1139
(lp1140
I0
aI1
asS'dental'
p1141
(lp1142
I0
aI1
asS'pilules'
p1143
(lp1144
I0
aI1
asS'disappeared'
p1145
(lp1146
I0
aI1
asS'discount'
p1147
(lp1148
I0
aI1
asS'iieo'
p1149
(lp1150
I0
aI1
asS'memorable'
p1151
(lp1152
I0
aI1
asS'post'
p1153
(lp1154
I0
aI1
asS'permitted'
p1155
(lp1156
I0
aI1
asS'scopula'
p1157
(lp1158
I0
aI1
asS'adet'
p1159
(lp1160
I0
aI1
asS'census'
p1161
(lp1162
I0
aI1
asS'attacks'
p1163
(lp1164
I0
aI1
asS'siedlich'
p1165
(lp1166
I0
aI1
asS'o'
p1167
(lp1168
I0
aI1
asS'plunging'
p1169
(lp1170
I0
aI1
asS'magazine'
p1171
(lp1172
I0
aI1
asS'plus'
p1173
(lp1174
I0
aI1
asS'afternoon'
p1175
(lp1176
I0
aI1
asS'horizon'
p1177
(lp1178
I0
aI1
asS'blogstart'
p1179
(lp1180
I0
aI1
asS'showtimes'
p1181
(lp1182
I0
aI1
asS'palestinians'
p1183
(lp1184
I0
aI1
asS'slightly'
p1185
(lp1186
I0
aI1
asS'automatically'
p1187
(lp1188
I0
aI1
asS'minicem'
p1189
(lp1190
I0
aI1
asS'mba'
p1191
(lp1192
I0
aI1
asS'son'
p1193
(lp1194
I0
aI1
asS'rendering'
p1195
(lp1196
I0
aI1
asS'xosd'
p1197
(lp1198
I0
aI1
asS'right'
p1199
(lp1200
I0
aI1
asS'mbr'
p1201
(lp1202
I0
aI1
asS'malva'
p1203
(lp1204
I0
aI1
asS'hallo'
p1205
(lp1206
I0
aI1
asS'support'
p1207
(lp1208
I0
aI1
asS'lastest'
p1209
(lp1210
I0
aI1
asS'fight'
p1211
(lp1212
I0
aI1
asS'virgin'
p1213
(lp1214
I0
aI1
asS'joseph'
p1215
(lp1216
I0
aI1
asS'stacy'
p1217
(lp1218
I0
aI1
asS'gib'
p1219
(lp1220
I0
aI1
asS'way'
p1221
(lp1222
I0
aI1
asS'perkel'
p1223
(lp1224
I0
aI1
asS'editions'
p1225
(lp1226
I0
aI1
asS'war'
p1227
(lp1228
I0
aI1
asS'happy'
p1229
(lp1230
I0
aI1
asS'fork'
p1231
(lp1232
I0
aI1
asS'medium'
p1233
(lp1234
I0
aI1
asS'form'
p1235
(lp1236
I0
aI1
asS'offer'
p1237
(lp1238
I0
aI1
asS'preschoolers'
p1239
(lp1240
I0
aI1
asS'xxxxxxxxxxxxxxxxxxxxxxthank'
p1241
(lp1242
I0
aI1
asS'pierre'
p1243
(lp1244
I0
aI1
asS'wireless'
p1245
(lp1246
I0
aI1
asS'maddest'
p1247
(lp1248
I0
aI1
asS'hemisphere'
p1249
(lp1250
I0
aI1
asS'amusing'
p1251
(lp1252
I0
aI1
asS'true'
p1253
(lp1254
I0
aI1
asS'congratulations'
p1255
(lp1256
I0
aI1
asS'rolexdaytona'
p1257
(lp1258
I0
aI1
asS'urgent'
p1259
(lp1260
I0
aI1
asS'inside'
p1261
(lp1262
I0
aI1
asS'nsources'
p1263
(lp1264
I0
aI1
asS'untitled'
p1265
(lp1266
I0
aI1
asS'crystal'
p1267
(lp1268
I0
aI1
asS'pest'
p1269
(lp1270
I0
aI1
asS'attn'
p1271
(lp1272
I0
aI1
asS'firewalls'
p1273
(lp1274
I0
aI1
asS'dues'
p1275
(lp1276
I0
aI1
asS'moore'
p1277
(lp1278
I0
aI1
asS'classic'
p1279
(lp1280
I0
aI1
asS'request'
p1281
(lp1282
I0
aI1
asS'vwp'
p1283
(lp1284
I0
aI1
asS'proven'
p1285
(lp1286
I0
aI1
asS'evidence'
p1287
(lp1288
I0
aI1
asS'ddos'
p1289
(lp1290
I0
aI1
asS'ananova'
p1291
(lp1292
I0
aI1
asS'tea'
p1293
(lp1294
I0
aI1
asS'annoying'
p1295
(lp1296
I0
aI1
asS'check'
p1297
(lp1298
I0
aI1
asS'pipe'
p1299
(lp1300
I0
aI1
asS'dubya'
p1301
(lp1302
I0
aI1
asS'newsletter'
p1303
(lp1304
I0
aI1
asS'nl'
p1305
(lp1306
I0
aI1
asS'socijalista'
p1307
(lp1308
I0
aI1
asS'na'
p1309
(lp1310
I0
aI1
asS'tip'
p1311
(lp1312
I0
aI1
asS'ne'
p1313
(lp1314
I0
aI1
asS'reality'
p1315
(lp1316
I0
aI1
asS'tim'
p1317
(lp1318
I0
aI1
asS'warms'
p1319
(lp1320
I0
aI1
asS'republic'
p1321
(lp1322
I0
aI1
asS'digital'
p1323
(lp1324
I0
aI1
asS'test'
p1325
(lp1326
I0
aI1
asS'nt'
p1327
(lp1328
I0
aI1
asS'picture'
p1329
(lp1330
I0
aI1
asS'brothers'
p1331
(lp1332
I0
aI1
asS'garland'
p1333
(lp1334
I0
aI1
asS'welcome'
p1335
(lp1336
I0
aI1
asS'update'
p1337
(lp1338
I0
aI1
asS'diet'
p1339
(lp1340
I0
aI1
asS'schuman'
p1341
(lp1342
I0
aI1
asS'quinlan'
p1343
(lp1344
I0
aI1
asS'fsa'
p1345
(lp1346
I0
aI1
asS'domingo'
p1347
(lp1348
I0
aI1
asS'happening'
p1349
(lp1350
I0
aI1
asS'daily'
p1351
(lp1352
I0
aI1
asS'ydjcopq'
p1353
(lp1354
I0
aI1
asS'time'
p1355
(lp1356
I0
aI1
asS'intimacy'
p1357
(lp1358
I0
aI1
asS'precise'
p1359
(lp1360
I0
aI1
asS'concepts'
p1361
(lp1362
I0
aI1
asS'managed'
p1363
(lp1364
I0
aI1
asS'ron'
p1365
(lp1366
I0
aI1
asS'skip'
p1367
(lp1368
I0
aI1
asS'rob'
p1369
(lp1370
I0
aI1
asS'global'
p1371
(lp1372
I0
aI1
asS'alternatives'
p1373
(lp1374
I0
aI1
asS'ouch'
p1375
(lp1376
I0
aI1
asS'milomirem'
p1377
(lp1378
I0
aI1
asS'anand'
p1379
(lp1380
I0
aI1
asS'vpn'
p1381
(lp1382
I0
aI1
asS'clarification'
p1383
(lp1384
I0
aI1
asS'father'
p1385
(lp1386
I0
aI1
asS'amaze'
p1387
(lp1388
I0
aI1
asS'charge'
p1389
(lp1390
I0
aI1
asS'promoting'
p1391
(lp1392
I0
aI1
asS'spamtalk'
p1393
(lp1394
I0
aI1
asS'macho'
p1395
(lp1396
I0
aI1
asS'supported'
p1397
(lp1398
I0
aI1
asS'advantage'
p1399
(lp1400
I0
aI1
asS'zhang'
p1401
(lp1402
I0
aI1
asS'refinance'
p1403
(lp1404
I0
aI1
asS'choice'
p1405
(lp1406
I0
aI1
asS'fdisk'
p1407
(lp1408
I0
aI1
asS'mourn'
p1409
(lp1410
I0
aI1
asS'ma'
p1411
(lp1412
I0
aI1
asS'trouble'
p1413
(lp1414
I0
aI1
asS'bahama'
p1415
(lp1416
I0
aI1
asS'minute'
p1417
(lp1418
I0
aI1
asS'cool'
p1419
(lp1420
I0
aI1
asS'die'
p1421
(lp1422
I0
aI1
asS'gui'
p1423
(lp1424
I0
aI1
asS'hardcoding'
p1425
(lp1426
I0
aI1
asS'accidentally'
p1427
(lp1428
I0
aI1
asS'magnet'
p1429
(lp1430
I0
aI1
asS'p'
p1431
(lp1432
I0
aI1
asS'aviators'
p1433
(lp1434
I0
aI1
asS'hoeppner'
p1435
(lp1436
I0
aI1
asS'quick'
p1437
(lp1438
I0
aI1
asS'div'
p1439
(lp1440
I0
aI1
asS'round'
p1441
(lp1442
I0
aI1
asS'upper'
p1443
(lp1444
I0
aI1
asS'unexpected'
p1445
(lp1446
I0
aI1
asS'amatuer'
p1447
(lp1448
I0
aI1
asS'villa'
p1449
(lp1450
I0
aI1
asS'sign'
p1451
(lp1452
I0
aI1
asS'cost'
p1453
(lp1454
I0
aI1
asS'eating'
p1455
(lp1456
I0
aI1
asS'targets'
p1457
(lp1458
I0
aI1
asS'vigoral'
p1459
(lp1460
I0
aI1
asS'endangering'
p1461
(lp1462
I0
aI1
asS'ordi'
p1463
(lp1464
I0
aI1
asS'marry'
p1465
(lp1466
I0
aI1
asS'rome'
p1467
(lp1468
I0
aI1
asS'current'
p1469
(lp1470
I0
aI1
asS'somalia'
p1471
(lp1472
I0
aI1
asS'goes'
p1473
(lp1474
I0
aI1
asS'inkjets'
p1475
(lp1476
I0
aI1
asS'international'
p1477
(lp1478
I0
aI1
asS'falling'
p1479
(lp1480
I0
aI1
asS'kunskaper'
p1481
(lp1482
I0
aI1
asS'filled'
p1483
(lp1484
I0
aI1
asS'ms'
p1485
(lp1486
I0
aI1
asS'honour'
p1487
(lp1488
I0
aI1
asS'baartman'
p1489
(lp1490
I0
aI1
asS'muslim'
p1491
(lp1492
I0
aI1
asS'uncc'
p1493
(lp1494
I0
aI1
asS'french'
p1495
(lp1496
I0
aI1
asS'downloaded'
p1497
(lp1498
I0
aI1
asS'groups'
p1499
(lp1500
I0
aI1
asS'teacher'
p1501
(lp1502
I0
aI1
asS'change'
p1503
(lp1504
I0
aI1
asS'wait'
p1505
(lp1506
I0
aI1
asS'box'
p1507
(lp1508
I0
aI1
asS'sending'
p1509
(lp1510
I0
aI1
asS'canadian'
p1511
(lp1512
I0
aI1
asS'institute'
p1513
(lp1514
I0
aI1
asS'buca'
p1515
(lp1516
I0
aI1
asS'dublin'
p1517
(lp1518
I0
aI1
asS'aevefuxa'
p1519
(lp1520
I0
aI1
asS'usually'
p1521
(lp1522
I0
aI1
asS'bob'
p1523
(lp1524
I0
aI1
asS'hamza'
p1525
(lp1526
I0
aI1
asS'love'
p1527
(lp1528
I0
aI1
asS'extra'
p1529
(lp1530
I0
aI1
asS'prefer'
p1531
(lp1532
I0
aI1
asS'casanova'
p1533
(lp1534
I0
aI1
asS'marvelous'
p1535
(lp1536
I0
aI1
asS'market'
p1537
(lp1538
I0
aI1
asS'schrieb'
p1539
(lp1540
I0
aI1
asS'monatlicher'
p1541
(lp1542
I0
aI1
asS'wealth'
p1543
(lp1544
I0
aI1
asS'working'
p1545
(lp1546
I0
aI1
asS'uyvy'
p1547
(lp1548
I0
aI1
asS'anda'
p1549
(lp1550
I0
aI1
asS'gonze'
p1551
(lp1552
I0
aI1
asS'perl'
p1553
(lp1554
I0
aI1
asS'live'
p1555
(lp1556
I0
aI1
asS'iphone'
p1557
(lp1558
I0
aI1
asS'wondering'
p1559
(lp1560
I0
aI1
asS'memory'
p1561
(lp1562
I0
aI1
asS'films'
p1563
(lp1564
I0
aI1
asS'today'
p1565
(lp1566
I0
aI1
asS'introducing'
p1567
(lp1568
I0
aI1
asS'kerry'
p1569
(lp1570
I0
aI1
asS'printers'
p1571
(lp1572
I0
aI1
asS'oregon'
p1573
(lp1574
I0
aI1
asS'herojskog'
p1575
(lp1576
I0
aI1
asS'cases'
p1577
(lp1578
I0
aI1
asS'effort'
p1579
(lp1580
I0
aI1
asS'easiest'
p1581
(lp1582
I0
aI1
asS'behalf'
p1583
(lp1584
I0
aI1
asS'states'
p1585
(lp1586
I0
aI1
asS'quoting'
p1587
(lp1588
I0
aI1
asS'podandrogyne'
p1589
(lp1590
I0
aI1
asS'hardeman'
p1591
(lp1592
I0
aI1
asS'cat'
p1593
(lp1594
I0
aI1
asS'achieve'
p1595
(lp1596
I0
aI1
asS'following'
p1597
(lp1598
I0
aI1
asS'bulot'
p1599
(lp1600
I0
aI1
asS'heart'
p1601
(lp1602
I0
aI1
asS'months'
p1603
(lp1604
I0
aI1
asS'figure'
p1605
(lp1606
I0
aI1
asS'december'
p1607
(lp1608
I0
aI1
asS'chip'
p1609
(lp1610
I0
aI1
asS'newsletters'
p1611
(lp1612
I0
aI1
asS'carroll'
p1613
(lp1614
I0
aI1
asS'confused'
p1615
(lp1616
I0
aI1
asS'topic'
p1617
(lp1618
I0
aI1
asS'heard'
p1619
(lp1620
I0
aI1
asS'fortunes'
p1621
(lp1622
I0
aI1
asS'dropped'
p1623
(lp1624
I0
aI1
asS'burbank'
p1625
(lp1626
I0
aI1
asS'gooday'
p1627
(lp1628
I0
aI1
asS'hth'
p1629
(lp1630
I0
aI1
asS'discussion'
p1631
(lp1632
I0
aI1
asS'write'
p1633
(lp1634
I0
aI1
asS'sunday'
p1635
(lp1636
I0
aI1
asS'kehoe'
p1637
(lp1638
I0
aI1
asS'gaping'
p1639
(lp1640
I0
aI1
asS'economy'
p1641
(lp1642
I0
aI1
asS'map'
p1643
(lp1644
I0
aI1
asS'product'
p1645
(lp1646
I0
aI1
asS'mar'
p1647
(lp1648
I0
aI1
asS'eights'
p1649
(lp1650
I0
aI1
asS'information'
p1651
(lp1652
I0
aI1
asS'southern'
p1653
(lp1654
I0
aI1
asS'islamic'
p1655
(lp1656
I0
aI1
asS'mac'
p1657
(lp1658
I0
aI1
asS'snape'
p1659
(lp1660
I0
aI1
asS'mad'
p1661
(lp1662
I0
aI1
asS'xorg'
p1663
(lp1664
I0
aI1
asS'divx'
p1665
(lp1666
I0
aI1
asS'date'
p1667
(lp1668
I0
aI1
asS'guys'
p1669
(lp1670
I0
aI1
asS'man'
p1671
(lp1672
I0
aI1
asS'natural'
p1673
(lp1674
I0
aI1
asS'remember'
p1675
(lp1676
I0
aI1
asS'johnson'
p1677
(lp1678
I0
aI1
asS'maybe'
p1679
(lp1680
I0
aI1
asS'yielding'
p1681
(lp1682
I0
aI1
asS'ximian'
p1683
(lp1684
I0
aI1
asS'switch'
p1685
(lp1686
I0
aI1
asS'sh'
p1687
(lp1688
I0
aI1
asS'african'
p1689
(lp1690
I0
aI1
asS'omer'
p1691
(lp1692
I0
aI1
asS'sa'
p1693
(lp1694
I0
aI1
asS'increase'
p1695
(lp1696
I0
aI1
asS'sf'
p1697
(lp1698
I0
aI1
asS'talk'
p1699
(lp1700
I0
aI1
asS'ssh'
p1701
(lp1702
I0
aI1
asS'refund'
p1703
(lp1704
I0
aI1
asS'exclusive'
p1705
(lp1706
I0
aI1
asS'acts'
p1707
(lp1708
I0
aI1
asS'seeing'
p1709
(lp1710
I0
aI1
asS'kone'
p1711
(lp1712
I0
aI1
asS'years'
p1713
(lp1714
I0
aI1
asS'course'
p1715
(lp1716
I0
aI1
asS'tonic'
p1717
(lp1718
I0
aI1
asS'cold'
p1719
(lp1720
I0
aI1
asS'disconnect'
p1721
(lp1722
I0
aI1
asS'monitor'
p1723
(lp1724
I0
aI1
asS'interesting'
p1725
(lp1726
I0
aI1
asS'jim'
p1727
(lp1728
I0
aI1
asS'yorkshire'
p1729
(lp1730
I0
aI1
asS'window'
p1731
(lp1732
I0
aI1
asS'offers'
p1733
(lp1734
I0
aI1
asS'cable'
p1735
(lp1736
I0
aI1
asS'intl'
p1737
(lp1738
I0
aI1
asS'mail'
p1739
(lp1740
I0
aI1
asS'main'
p1741
(lp1742
I0
aI1
asS'meridian'
p1743
(lp1744
I0
aI1
asS'happened'
p1745
(lp1746
I0
aI1
asS'non'
p1747
(lp1748
I0
aI1
asS'killer'
p1749
(lp1750
I0
aI1
asS'indigenous'
p1751
(lp1752
I0
aI1
asS'spambayes'
p1753
(lp1754
I0
aI1
asS'records'
p1755
(lp1756
I0
aI1
asS'subscribers'
p1757
(lp1758
I0
aI1
asS'frissons'
p1759
(lp1760
I0
aI1
asS'recap'
p1761
(lp1762
I0
aI1
asS'hall'
p1763
(lp1764
I0
aI1
asS'term'
p1765
(lp1766
I0
aI1
asS'intrigues'
p1767
(lp1768
I0
aI1
asS'publication'
p1769
(lp1770
I0
aI1
asS'january'
p1771
(lp1772
I0
aI1
asS'settings'
p1773
(lp1774
I0
aI1
asS'ncial'
p1775
(lp1776
I0
aI1
asS'rtfm'
p1777
(lp1778
I0
aI1
asS'el'
p1779
(lp1780
I0
aI1
asS'eh'
p1781
(lp1782
I0
aI1
asS'caolan'
p1783
(lp1784
I0
aI1
asS'yeah'
p1785
(lp1786
I0
aI1
asS'challenges'
p1787
(lp1788
I0
aI1
asS'catching'
p1789
(lp1790
I0
aI1
asS'phentermine'
p1791
(lp1792
I0
aI1
asS'sponsor'
p1793
(lp1794
I0
aI1
asS'year'
p1795
(lp1796
I0
aI1
asS'girl'
p1797
(lp1798
I0
aI1
asS'morning'
p1799
(lp1800
I0
aI1
asS'plans'
p1801
(lp1802
I0
aI1
asS'living'
p1803
(lp1804
I0
aI1
asS'accomplish'
p1805
(lp1806
I0
aI1
asS'concur'
p1807
(lp1808
I0
aI1
asS'webcasts'
p1809
(lp1810
I0
aI1
asS'factors'
p1811
(lp1812
I0
aI1
asS'kenn'
p1813
(lp1814
I0
aI1
asS'looking'
p1815
(lp1816
I0
aI1
asS'seriously'
p1817
(lp1818
I0
aI1
asS'emerged'
p1819
(lp1820
I0
aI1
asS'internet'
p1821
(lp1822
I0
aI1
asS'formula'
p1823
(lp1824
I0
aI1
asS'receiving'
p1825
(lp1826
I0
aI1
asS'sweet'
p1827
(lp1828
I0
aI1
asS'shows'
p1829
(lp1830
I0
aI1
asS'squish'
p1831
(lp1832
I0
aI1
asS'attended'
p1833
(lp1834
I0
aI1
asS'procmail'
p1835
(lp1836
I0
aI1
asS'governing'
p1837
(lp1838
I0
aI1
asS'dependencies'
p1839
(lp1840
I0
aI1
asS'mime'
p1841
(lp1842
I0
aI1
asS'nakamichi'
p1843
(lp1844
I0
aI1
asS'card'
p1845
(lp1846
I0
aI1
asS'care'
p1847
(lp1848
I0
aI1
asS'fogyish'
p1849
(lp1850
I0
aI1
asS'training'
p1851
(lp1852
I0
aI1
asS'language'
p1853
(lp1854
I0
aI1
asS'spam'
p1855
(lp1856
I0
aI1
asS'volution'
p1857
(lp1858
I0
aI1
asS'british'
p1859
(lp1860
I0
aI1
asS'thing'
p1861
(lp1862
I0
aI1
asS'place'
p1863
(lp1864
I0
aI1
asS'gordon'
p1865
(lp1866
I0
aI1
asS'athalon'
p1867
(lp1868
I0
aI1
asS'promotion'
p1869
(lp1870
I0
aI1
asS'electorally'
p1871
(lp1872
I0
aI1
asS'think'
p1873
(lp1874
I0
aI1
asS'waited'
p1875
(lp1876
I0
aI1
asS'exotic'
p1877
(lp1878
I0
aI1
asS'baglantiya'
p1879
(lp1880
I0
aI1
asS'hotels'
p1881
(lp1882
I0
aI1
asS'saving'
p1883
(lp1884
I0
aI1
asS'redhat'
p1885
(lp1886
I0
aI1
asS'message'
p1887
(lp1888
I0
aI1
asS'open'
p1889
(lp1890
I0
aI1
asS'george'
p1891
(lp1892
I0
aI1
asS'ont'
p1893
(lp1894
I0
aI1
asS'size'
p1895
(lp1896
I0
aI1
asS'monks'
p1897
(lp1898
I0
aI1
asS'city'
p1899
(lp1900
I0
aI1
asS'little'
p1901
(lp1902
I0
aI1
asS'checked'
p1903
(lp1904
I0
aI1
asS'quality'
p1905
(lp1906
I0
aI1
asS'iab'
p1907
(lp1908
I0
aI1
asS'draft'
p1909
(lp1910
I0
aI1
asS'legally'
p1911
(lp1912
I0
aI1
asS'white'
p1913
(lp1914
I0
aI1
asS'friend'
p1915
(lp1916
I0
aI1
asS'gives'
p1917
(lp1918
I0
aI1
asS'zoifyko'
p1919
(lp1920
I0
aI1
asS'qpull'
p1921
(lp1922
I0
aI1
asS'eyes'
p1923
(lp1924
I0
aI1
asS'kenny'
p1925
(lp1926
I0
aI1
asS'illusionist'
p1927
(lp1928
I0
aI1
asS'accurately'
p1929
(lp1930
I0
aI1
asS'alan'
p1931
(lp1932
I0
aI1
asS'padding'
p1933
(lp1934
I0
aI1
asS'released'
p1935
(lp1936
I0
aI1
asS'specialists'
p1937
(lp1938
I0
aI1
asS'copy'
p1939
(lp1940
I0
aI1
asS'verheyen'
p1941
(lp1942
I0
aI1
asS'population'
p1943
(lp1944
I0
aI1
asS'wide'
p1945
(lp1946
I0
aI1
asS'unfortunately'
p1947
(lp1948
I0
aI1
asS'require'
p1949
(lp1950
I0
aI1
asS'folly'
p1951
(lp1952
I0
aI1
asS'nrteam'
p1953
(lp1954
I0
aI1
asS'applet'
p1955
(lp1956
I0
aI1
asS'r'
p1957
(lp1958
I0
aI1
asS'cards'
p1959
(lp1960
I0
aI1
asS'stanek'
p1961
(lp1962
I0
aI1
asS'browser'
p1963
(lp1964
I0
aI1
asS'pre'
p1965
(lp1966
I0
aI1
asS'lowest'
p1967
(lp1968
I0
aI1
asS'documentation'
p1969
(lp1970
I0
aI1
asS'rene'
p1971
(lp1972
I0
aI1
asS'craig'
p1973
(lp1974
I0
aI1
asS'pro'
p1975
(lp1976
I0
aI1
asS'mplayers'
p1977
(lp1978
I0
aI1
asS'lkerung'
p1979
(lp1980
I0
aI1
asS'mates'
p1981
(lp1982
I0
aI1
asS'loko'
p1983
(lp1984
I0
aI1
asS'allem'
p1985
(lp1986
I0
aI1
asS'padro'
p1987
(lp1988
I0
aI1
asS'saw'
p1989
(lp1990
I0
aI1
asS'kevin'
p1991
(lp1992
I0
aI1
asS'sat'
p1993
(lp1994
I0
aI1
asS'note'
p1995
(lp1996
I0
aI1
asS'squad'
p1997
(lp1998
I0
aI1
asS'online'
p1999
(lp2000
I0
aI1
asS'wanting'
p2001
(lp2002
I0
aI1
asS'deus'
p2003
(lp2004
I0
aI1
asS'bumsrush'
p2005
(lp2006
I0
aI1
asS'begin'
p2007
(lp2008
I0
aI1
asS'sure'
p2009
(lp2010
I0
aI1
asS'pain'
p2011
(lp2012
I0
aI1
asS'normal'
p2013
(lp2014
I0
aI1
asS'buffer'
p2015
(lp2016
I0
aI1
asS'sprach'
p2017
(lp2018
I0
aI1
asS'price'
p2019
(lp2020
I0
aI1
asS'knew'
p2021
(lp2022
I0
aI1
asS'ncte'
p2023
(lp2024
I0
aI1
asS'undesired'
p2025
(lp2026
I0
aI1
asS'konacno'
p2027
(lp2028
I0
aI1
asS'bashscript'
p2029
(lp2030
I0
aI1
asS'america'
p2031
(lp2032
I0
aI1
asS'winters'
p2033
(lp2034
I0
aI1
asS'feinstein'
p2035
(lp2036
I0
aI1
asS'lenny'
p2037
(lp2038
I0
aI1
asS'later'
p2039
(lp2040
I0
aI1
asS'sale'
p2041
(lp2042
I0
aI1
asS'managing'
p2043
(lp2044
I0
aI1
asS'harlan'
p2045
(lp2046
I0
aI1
asS'professional'
p2047
(lp2048
I0
aI1
asS'shop'
p2049
(lp2050
I0
aI1
asS'shot'
p2051
(lp2052
I0
aI1
asS'leicester'
p2053
(lp2054
I0
aI1
asS'teamed'
p2055
(lp2056
I0
aI1
asS'hack'
p2057
(lp2058
I0
aI1
asS'label'
p2059
(lp2060
I0
aI1
asS'maine'
p2061
(lp2062
I0
aI1
asS'fifth'
p2063
(lp2064
I0
aI1
asS'geography'
p2065
(lp2066
I0
aI1
asS'dermody'
p2067
(lp2068
I0
aI1
asS'upgrade'
p2069
(lp2070
I0
aI1
asS'going'
p2071
(lp2072
I0
aI1
asS'germs'
p2073
(lp2074
I0
aI1
asS'hooooo'
p2075
(lp2076
I0
aI1
asS'dispute'
p2077
(lp2078
I0
aI1
asS'thinkpad'
p2079
(lp2080
I0
aI1
asS'botanicals'
p2081
(lp2082
I0
aI1
asS'climent'
p2083
(lp2084
I0
aI1
asS'samuel'
p2085
(lp2086
I0
aI1
asS'satisfied'
p2087
(lp2088
I0
aI1
asS'mandarin'
p2089
(lp2090
I0
aI1
asS'nearly'
p2091
(lp2092
I0
aI1
asS'conjunction'
p2093
(lp2094
I0
aI1
asS'freaking'
p2095
(lp2096
I0
aI1
asS'quotepool'
p2097
(lp2098
I0
aI1
asS'versions'
p2099
(lp2100
I0
aI1
asS'medial'
p2101
(lp2102
I0
aI1
asS'email'
p2103
(lp2104
I0
aI1
asS'craftsmanship'
p2105
(lp2106
I0
aI1
asS'jokes'
p2107
(lp2108
I0
aI1
asS'mtodd'
p2109
(lp2110
I0
aI1
asS'mileageby'
p2111
(lp2112
I0
aI1
asS'stumbling'
p2113
(lp2114
I0
aI1
asS'mcbarton'
p2115
(lp2116
I0
aI1
asS'kernel'
p2117
(lp2118
I0
aI1
asS'declared'
p2119
(lp2120
I0
aI1
asS'signs'
p2121
(lp2122
I0
aI1
asS'gbbandwidth'
p2123
(lp2124
I0
aI1
asS'darwin'
p2125
(lp2126
I0
aI1
asS'lediga'
p2127
(lp2128
I0
aI1
asS'wonder'
p2129
(lp2130
I0
aI1
asS'um'
p2131
(lp2132
I0
aI1
asS'detect'
p2133
(lp2134
I0
aI1
asS'mortgage'
p2135
(lp2136
I0
aI1
asS'ways'
p2137
(lp2138
I0
aI1
asS'review'
p2139
(lp2140
I0
aI1
asS'partija'
p2141
(lp2142
I0
aI1
asS'paschal'
p2143
(lp2144
I0
aI1
asS'forecast'
p2145
(lp2146
I0
aI1
asS'herbal'
p2147
(lp2148
I0
aI1
asS'fermi'
p2149
(lp2150
I0
aI1
asS'teens'
p2151
(lp2152
I0
aI1
asS'reading'
p2153
(lp2154
I0
aI1
asS'affordable'
p2155
(lp2156
I0
aI1
asS'infrastructure'
p2157
(lp2158
I0
aI1
asS'jobs'
p2159
(lp2160
I0
aI1
asS'august'
p2161
(lp2162
I0
aI1
asS'moment'
p2163
(lp2164
I0
aI1
asS'comp'
p2165
(lp2166
I0
aI1
asS'jw'
p2167
(lp2168
I0
aI1
asS'blame'
p2169
(lp2170
I0
aI1
asS'awards'
p2171
(lp2172
I0
aI1
asS'jj'
p2173
(lp2174
I0
aI1
asS'jets'
p2175
(lp2176
I0
aI1
asS'saou'
p2177
(lp2178
I0
aI1
asS'cities'
p2179
(lp2180
I0
aI1
asS'come'
p2181
(lp2182
I0
aI1
asS'tue'
p2183
(lp2184
I0
aI1
asS'talented'
p2185
(lp2186
I0
aI1
asS'ryanair'
p2187
(lp2188
I0
aI1
asS'quiet'
p2189
(lp2190
I0
aI1
asS'enabling'
p2191
(lp2192
I0
aI1
asS's'
p2193
(lp2194
I0
aI1
asS'fix'
p2195
(lp2196
I0
aI1
asS'comes'
p2197
(lp2198
I0
aI1
asS'riddle'
p2199
(lp2200
I0
aI1
asS'cancer'
p2201
(lp2202
I0
aI1
asS'color'
p2203
(lp2204
I0
aI1
asS'relocated'
p2205
(lp2206
I0
aI1
asS'colony'
p2207
(lp2208
I0
aI1
asS'pop'
p2209
(lp2210
I0
aI1
asS'satisfaction'
p2211
(lp2212
I0
aI1
asS'dispatch'
p2213
(lp2214
I0
aI1
asS'learning'
p2215
(lp2216
I0
aI1
asS'article'
p2217
(lp2218
I0
aI1
asS'bizarre'
p2219
(lp2220
I0
aI1
asS'unusual'
p2221
(lp2222
I0
aI1
asS'listers'
p2223
(lp2224
I0
aI1
asS'nope'
p2225
(lp2226
I0
aI1
asS'subscribed'
p2227
(lp2228
I0
aI1
asS'marc'
p2229
(lp2230
I0
aI1
asS'barry'
p2231
(lp2232
I0
aI1
asS'invert'
p2233
(lp2234
I0
aI1
asS'inkjet'
p2235
(lp2236
I0
aI1
asS'consonants'
p2237
(lp2238
I0
aI1
asS'mark'
p2239
(lp2240
I0
aI1
asS'mart'
p2241
(lp2242
I0
aI1
asS'slackware'
p2243
(lp2244
I0
aI1
asS'zusammentreffen'
p2245
(lp2246
I0
aI1
asS'direction'
p2247
(lp2248
I0
aI1
asS'enable'
p2249
(lp2250
I0
aI1
asS'benoit'
p2251
(lp2252
I0
aI1
asS'thousand'
p2253
(lp2254
I0
aI1
asS'sincerely'
p2255
(lp2256
I0
aI1
asS'observers'
p2257
(lp2258
I0
aI1
asS'stephen'
p2259
(lp2260
I0
aI1
asS'andrei'
p2261
(lp2262
I0
aI1
asS'jueves'
p2263
(lp2264
I0
aI1
asS'external'
p2265
(lp2266
I0
aI1
asS'lidakis'
p2267
(lp2268
I0
aI1
asS'bonjour'
p2269
(lp2270
I0
aI1
asS'leal'
p2271
(lp2272
I0
aI1
asS'margulies'
p2273
(lp2274
I0
aI1
asS'manu'
p2275
(lp2276
I0
aI1
asS'case'
p2277
(lp2278
I0
aI1
asS'developing'
p2279
(lp2280
I0
aI1
asS'boris'
p2281
(lp2282
I0
aI1
asS'mount'
p2283
(lp2284
I0
aI1
asS'cash'
p2285
(lp2286
I0
aI1
asS'trick'
p2287
(lp2288
I0
aI1
asS'newspaper'
p2289
(lp2290
I0
aI1
asS'margin'
p2291
(lp2292
I0
aI1
asS'dissident'
p2293
(lp2294
I0
aI1
asS'according'
p2295
(lp2296
I0
aI1
asS'unwritten'
p2297
(lp2298
I0
aI1
asS'somebody'
p2299
(lp2300
I0
aI1
asS'ascii'
p2301
(lp2302
I0
aI1
asS'everyday'
p2303
(lp2304
I0
aI1
asS'different'
p2305
(lp2306
I0
aI1
asS'absences'
p2307
(lp2308
I0
aI1
asS'doctor'
p2309
(lp2310
I0
aI1
asS'media'
p2311
(lp2312
I0
aI1
asS'trip'
p2313
(lp2314
I0
aI1
asS'html'
p2315
(lp2316
I0
aI1
asS'humphries'
p2317
(lp2318
I0
aI1
asS'arguments'
p2319
(lp2320
I0
aI1
asS'propose'
p2321
(lp2322
I0
aI1
asS'pai'
p2323
(lp2324
I0
aI1
asS'struggling'
p2325
(lp2326
I0
aI1
asS'document'
p2327
(lp2328
I0
aI1
asS'events'
p2329
(lp2330
I0
aI1
asS'week'
p2331
(lp2332
I0
aI1
asS'finish'
p2333
(lp2334
I0
aI1
asS'births'
p2335
(lp2336
I0
aI1
asS'drives'
p2337
(lp2338
I0
aI1
asS'cheers'
p2339
(lp2340
I0
aI1
asS'running'
p2341
(lp2342
I0
aI1
asS'fodor'
p2343
(lp2344
I0
aI1
asS'changing'
p2345
(lp2346
I0
aI1
asS'cartoon'
p2347
(lp2348
I0
aI1
asS'booster'
p2349
(lp2350
I0
aI1
asS'band'
p2351
(lp2352
I0
aI1
asS'constitutional'
p2353
(lp2354
I0
aI1
asS'sinirsiz'
p2355
(lp2356
I0
aI1
asS'solve'
p2357
(lp2358
I0
aI1
asS'relied'
p2359
(lp2360
I0
aI1
asS'modem'
p2361
(lp2362
I0
aI1
asS'summer'
p2363
(lp2364
I0
aI1
asS'morons'
p2365
(lp2366
I0
aI1
asS'execute'
p2367
(lp2368
I0
aI1
asS'money'
p2369
(lp2370
I0
aI1
asS'speer'
p2371
(lp2372
I0
aI1
asS'sights'
p2373
(lp2374
I0
aI1
asS'actions'
p2375
(lp2376
I0
aI1
asS'woodworking'
p2377
(lp2378
I0
aI1
asS'kill'
p2379
(lp2380
I0
aI1
asS'greetings'
p2381
(lp2382
I0
aI1
asS'speed'
p2383
(lp2384
I0
aI1
asS'gdm'
p2385
(lp2386
I0
aI1
asS'weekly'
p2387
(lp2388
I0
aI1
asS'announcement'
p2389
(lp2390
I0
aI1
asS'samba'
p2391
(lp2392
I0
aI1
asS'application'
p2393
(lp2394
I0
aI1
asS'rose'
p2395
(lp2396
I0
aI1
asS'blog'
p2397
(lp2398
I0
aI1
asS'lets'
p2399
(lp2400
I0
aI1
asS'interested'
p2401
(lp2402
I0
aI1
asS'ahhhh'
p2403
(lp2404
I0
aI1
asS'gloating'
p2405
(lp2406
I0
aI1
asS'extensive'
p2407
(lp2408
I0
aI1
asS'ca'
p2409
(lp2410
I0
aI1
asS'real'
p2411
(lp2412
I0
aI1
asS'oberman'
p2413
(lp2414
I0
aI1
asS'kills'
p2415
(lp2416
I0
aI1
asS'desperately'
p2417
(lp2418
I0
aI1
asS'read'
p2419
(lp2420
I0
aI1
asS'milosevica'
p2421
(lp2422
I0
aI1
asS'unedited'
p2423
(lp2424
I0
aI1
asS'mon'
p2425
(lp2426
I0
aI1
asS'world'
p2427
(lp2428
I0
aI1
asS'postal'
p2429
(lp2430
I0
aI1
asS'vanwoerkom'
p2431
(lp2432
I0
aI1
asS'naval'
p2433
(lp2434
I0
aI1
asS'adams'
p2435
(lp2436
I0
aI1
asS'patrick'
p2437
(lp2438
I0
aI1
asS'britny'
p2439
(lp2440
I0
aI1
asS'server'
p2441
(lp2442
I0
aI1
asS'facing'
p2443
(lp2444
I0
aI1
asS'thrower'
p2445
(lp2446
I0
aI1
asS'vjehuaker'
p2447
(lp2448
I0
aI1
asS't'
p2449
(lp2450
I0
aI1
asS'whatcha'
p2451
(lp2452
I0
aI1
asS'output'
p2453
(lp2454
I0
aI1
asS'reduced'
p2455
(lp2456
I0
aI1
asS'masri'
p2457
(lp2458
I0
aI1
asS'udev'
p2459
(lp2460
I0
aI1
asS'chuck'
p2461
(lp2462
I0
aI1
asS'japanese'
p2463
(lp2464
I0
aI1
asS'privatization'
p2465
(lp2466
I0
aI1
asS'respect'
p2467
(lp2468
I0
aI1
asS'images'
p2469
(lp2470
I0
aI1
asS'alternet'
p2471
(lp2472
I0
aI1
asS'scandals'
p2473
(lp2474
I0
aI1
asS'rsync'
p2475
(lp2476
I0
aI1
asS'toners'
p2477
(lp2478
I0
aI1
asS'mood'
p2479
(lp2480
I0
aI1
asS'confirm'
p2481
(lp2482
I0
aI1
asS'vuorela'
p2483
(lp2484
I0
aI1
asS'zdnet'
p2485
(lp2486
I0
aI1
asS'moon'
p2487
(lp2488
I0
aI1
asS'realnews'
p2489
(lp2490
I0
aI1
asS'biased'
p2491
(lp2492
I0
aI1
asS'football'
p2493
(lp2494
I0
aI1
asS'business'
p2495
(lp2496
I0
aI1
asS'tixy'
p2497
(lp2498
I0
aI1
asS'notable'
p2499
(lp2500
I0
aI1
asS'arts'
p2501
(lp2502
I0
aI1
asS'resubscribe'
p2503
(lp2504
I0
aI1
asS'thailand'
p2505
(lp2506
I0
aI1
asS'throw'
p2507
(lp2508
I0
aI1
asS'rodolfo'
p2509
(lp2510
I0
aI1
asS'thomas'
p2511
(lp2512
I0
aI1
asS'ok'
p2513
(lp2514
I0
aI1
asS'lioness'
p2515
(lp2516
I0
aI1
asS'oh'
p2517
(lp2518
I0
aI1
asS'favorite'
p2519
(lp2520
I0
aI1
asS'mixer'
p2521
(lp2522
I0
aI1
asS'ports'
p2523
(lp2524
I0
aI1
asS'mutually'
p2525
(lp2526
I0
aI1
asS'stand'
p2527
(lp2528
I0
aI1
asS'waded'
p2529
(lp2530
I0
aI1
asS'west'
p2531
(lp2532
I0
aI1
asS'johnston'
p2533
(lp2534
I0
aI1
asS'gregory'
p2535
(lp2536
I0
aI1
asS'os'
p2537
(lp2538
I0
aI1
asS'lands'
p2539
(lp2540
I0
aI1
asS'whiter'
p2541
(lp2542
I0
aI1
asS'image'
p2543
(lp2544
I0
aI1
asS'weiwu'
p2545
(lp2546
I0
aI1
asS'inbox'
p2547
(lp2548
I0
aI1
asS'determine'
p2549
(lp2550
I0
aI1
asS'gary'
p2551
(lp2552
I0
aI1
asS'sexpills'
p2553
(lp2554
I0
aI1
asS'tores'
p2555
(lp2556
I0
aI1
asS'jostein'
p2557
(lp2558
I0
aI1
asS'ilyiiwqk'
p2559
(lp2560
I0
aI1
asS'forwarded'
p2561
(lp2562
I0
aI1
asS'loo'
p2563
(lp2564
I0
aI1
asS'lor'
p2565
(lp2566
I0
aI1
asS'start'
p2567
(lp2568
I0
aI1
asS'cats'
p2569
(lp2570
I0
aI1
asS'low'
p2571
(lp2572
I0
aI1
asS'valencia'
p2573
(lp2574
I0
aI1
asS'valley'
p2575
(lp2576
I0
aI1
asS'heh'
p2577
(lp2578
I0
aI1
asS'aoki'
p2579
(lp2580
I0
aI1
asS'dealt'
p2581
(lp2582
I0
aI1
asS'deepened'
p2583
(lp2584
I0
aI1
asS'riva'
p2585
(lp2586
I0
aI1
asS'jul'
p2587
(lp2588
I0
aI1
asS'stoddard'
p2589
(lp2590
I0
aI1
asS'cultic'
p2591
(lp2592
I0
aI1
asS'trying'
p2593
(lp2594
I0
aI1
asS'hire'
p2595
(lp2596
I0
aI1
asS'october'
p2597
(lp2598
I0
aI1
asS'keycodes'
p2599
(lp2600
I0
aI1
asS'salmin'
p2601
(lp2602
I0
aI1
asS'dvd'
p2603
(lp2604
I0
aI1
asS'agree'
p2605
(lp2606
I0
aI1
asS'falomo'
p2607
(lp2608
I0
aI1
asS'ad'
p2609
(lp2610
I0
aI1
asS'certain'
p2611
(lp2612
I0
aI1
asS'al'
p2613
(lp2614
I0
aI1
asS'watches'
p2615
(lp2616
I0
aI1
asS'britain'
p2617
(lp2618
I0
aI1
asS'ar'
p2619
(lp2620
I0
aI1
asS'tasty'
p2621
(lp2622
I0
aI1
asS'file'
p2623
(lp2624
I0
aI1
asS'lifetime'
p2625
(lp2626
I0
aI1
asS'cream'
p2627
(lp2628
I0
aI1
asS'antenna'
p2629
(lp2630
I0
aI1
asS'drivers'
p2631
(lp2632
I0
aI1
asS'saturday'
p2633
(lp2634
I0
aI1
asS'vietnam'
p2635
(lp2636
I0
aI1
asS'phenom'
p2637
(lp2638
I0
aI1
asS'instantly'
p2639
(lp2640
I0
aI1
asS'sully'
p2641
(lp2642
I0
aI1
asS'herba'
p2643
(lp2644
I0
aI1
asS'hey'
p2645
(lp2646
I0
aI1
asS'nudie'
p2647
(lp2648
I0
aI1
asS'videocamera'
p2649
(lp2650
I0
aI1
asS'translated'
p2651
(lp2652
I0
aI1
asS'finale'
p2653
(lp2654
I0
aI1
asS'montanaro'
p2655
(lp2656
I0
aI1
asS'hardware'
p2657
(lp2658
I0
aI1
asS'important'
p2659
(lp2660
I0
aI1
asS'recognise'
p2661
(lp2662
I0
aI1
asS'terry'
p2663
(lp2664
I0
aI1
asS'included'
p2665
(lp2666
I0
aI1
asS'pool'
p2667
(lp2668
I0
aI1
asS'siju'
p2669
(lp2670
I0
aI1
asS'tricky'
p2671
(lp2672
I0
aI1
asS'calls'
p2673
(lp2674
I0
aI1
asS'wife'
p2675
(lp2676
I0
aI1
asS'plansupersize'
p2677
(lp2678
I0
aI1
asS'barcelona'
p2679
(lp2680
I0
aI1
asS'scroll'
p2681
(lp2682
I0
aI1
asS'u'
p2683
(lp2684
I0
aI1
asS'adam'
p2685
(lp2686
I0
aI1
asS'sinderson'
p2687
(lp2688
I0
aI1
asS'original'
p2689
(lp2690
I0
aI1
asS'outlining'
p2691
(lp2692
I0
aI1
asS'liar'
p2693
(lp2694
I0
aI1
asS'lack'
p2695
(lp2696
I0
aI1
asS'launchhe'
p2697
(lp2698
I0
aI1
asS'romania'
p2699
(lp2700
I0
aI1
asS'month'
p2701
(lp2702
I0
aI1
asS'founded'
p2703
(lp2704
I0
aI1
asS'gt'
p2705
(lp2706
I0
aI1
asS'leitl'
p2707
(lp2708
I0
aI1
asS'talks'
p2709
(lp2710
I0
aI1
asS'cincinnati'
p2711
(lp2712
I0
aI1
asS'liam'
p2713
(lp2714
I0
aI1
asS'pts'
p2715
(lp2716
I0
aI1
asS'children'
p2717
(lp2718
I0
aI1
asS'jerome'
p2719
(lp2720
I0
aI1
asS'sune'
p2721
(lp2722
I0
aI1
asS'jessie'
p2723
(lp2724
I0
aI1
asS'careful'
p2725
(lp2726
I0
aI1
asS'jozwik'
p2727
(lp2728
I0
aI1
asS'cheney'
p2729
(lp2730
I0
aI1
asS'thursday'
p2731
(lp2732
I0
aI1
asS'aaron'
p2733
(lp2734
I0
aI1
asS'program'
p2735
(lp2736
I0
aI1
asS'elias'
p2737
(lp2738
I0
aI1
asS'th'
p2739
(lp2740
I0
aI1
asS'smile'
p2741
(lp2742
I0
aI1
asS'td'
p2743
(lp2744
I0
aI1
asS'te'
p2745
(lp2746
I0
aI1
asS'consul'
p2747
(lp2748
I0
aI1
asS'ghana'
p2749
(lp2750
I0
aI1
asS'fax'
p2751
(lp2752
I0
aI1
asS'far'
p2753
(lp2754
I0
aI1
asS'hizli'
p2755
(lp2756
I0
aI1
asS'horror'
p2757
(lp2758
I0
aI1
asS'uwouonovaqiv'
p2759
(lp2760
I0
aI1
asS'facebookfacebookfacebook'
p2761
(lp2762
I0
aI1
asS'results'
p2763
(lp2764
I0
aI1
asS'kplayer'
p2765
(lp2766
I0
aI1
asS'worst'
p2767
(lp2768
I0
aI1
asS'zyban'
p2769
(lp2770
I0
aI1
asS'scapegoats'
p2771
(lp2772
I0
aI1
asS'sequencers'
p2773
(lp2774
I0
aI1
asS'encroaching'
p2775
(lp2776
I0
aI1
asS'owolabi'
p2777
(lp2778
I0
aI1
asS'securely'
p2779
(lp2780
I0
aI1
asS'steve'
p2781
(lp2782
I0
aI1
asS'forking'
p2783
(lp2784
I0
aI1
asS'ranting'
p2785
(lp2786
I0
aI1
asS'sans'
p2787
(lp2788
I0
aI1
asS'enmities'
p2789
(lp2790
I0
aI1
asS'slagged'
p2791
(lp2792
I0
aI1
asS'list'
p2793
(lp2794
I0
aI1
asS'lisi'
p2795
(lp2796
I0
aI1
asS'sand'
p2797
(lp2798
I0
aI1
asS'harry'
p2799
(lp2800
I0
aI1
asS'small'
p2801
(lp2802
I0
aI1
asS'amoralism'
p2803
(lp2804
I0
aI1
asS'facundo'
p2805
(lp2806
I0
aI1
asS'tel'
p2807
(lp2808
I0
aI1
asS'haas'
p2809
(lp2810
I0
aI1
asS'vioxx'
p2811
(lp2812
I0
aI1
asS'sync'
p2813
(lp2814
I0
aI1
asS'cvs'
p2815
(lp2816
I0
aI1
asS'xmms'
p2817
(lp2818
I0
aI1
asS'rate'
p2819
(lp2820
I0
aI1
asS'ter'
p2821
(lp2822
I0
aI1
asS'investment'
p2823
(lp2824
I0
aI1
asS'consumers'
p2825
(lp2826
I0
aI1
asS'overige'
p2827
(lp2828
I0
aI1
asS'sun'
p2829
(lp2830
I0
aI1
asS'hukike'
p2831
(lp2832
I0
aI1
asS'version'
p2833
(lp2834
I0
aI1
asS'abu'
p2835
(lp2836
I0
aI1
asS'kahlout'
p2837
(lp2838
I0
aI1
asS'public'
p2839
(lp2840
I0
aI1
asS'handy'
p2841
(lp2842
I0
aI1
asS'edited'
p2843
(lp2844
I0
aI1
asS'hash'
p2845
(lp2846
I0
aI1
asS'loose'
p2847
(lp2848
I0
aI1
asS'answers'
p2849
(lp2850
I0
aI1
asS'forgive'
p2851
(lp2852
I0
aI1
asS'behaviour'
p2853
(lp2854
I0
aI1
asS'xinetd'
p2855
(lp2856
I0
aI1
asS'besorgte'
p2857
(lp2858
I0
aI1
asS'palio'
p2859
(lp2860
I0
aI1
asS'drzanja'
p2861
(lp2862
I0
aI1
asS'search'
p2863
(lp2864
I0
aI1
asS'teeth'
p2865
(lp2866
I0
aI1
asS'cock'
p2867
(lp2868
I0
aI1
asS'samad'
p2869
(lp2870
I0
aI1
asS'allows'
p2871
(lp2872
I0
aI1
asS'experimenting'
p2873
(lp2874
I0
aI1
asS'experience'
p2875
(lp2876
I0
aI1
asS'pics'
p2877
(lp2878
I0
aI1
asS'advertising'
p2879
(lp2880
I0
aI1
asS'rory'
p2881
(lp2882
I0
aI1
asS'action'
p2883
(lp2884
I0
aI1
asS'mentions'
p2885
(lp2886
I0
aI1
asS'proxy'
p2887
(lp2888
I0
aI1
asS'followed'
p2889
(lp2890
I0
aI1
asS'family'
p2891
(lp2892
I0
aI1
asS'africa'
p2893
(lp2894
I0
aI1
asS'bogeyman'
p2895
(lp2896
I0
aI1
asS'lagos'
p2897
(lp2898
I0
aI1
asS'aptitude'
p2899
(lp2900
I0
aI1
asS'hackedbox'
p2901
(lp2902
I0
aI1
asS'mabo'
p2903
(lp2904
I0
aI1
asS'lyda'
p2905
(lp2906
I0
aI1
asS'silva'
p2907
(lp2908
I0
aI1
asS'mb'
p2909
(lp2910
I0
aI1
asS'distinct'
p2911
(lp2912
I0
aI1
asS'contains'
p2913
(lp2914
I0
aI1
asS'single'
p2915
(lp2916
I0
aI1
asS'finally'
p2917
(lp2918
I0
aI1
asS'srbije'
p2919
(lp2920
I0
aI1
asS'boquist'
p2921
(lp2922
I0
aI1
asS'niall'
p2923
(lp2924
I0
aI1
asS'pitching'
p2925
(lp2926
I0
aI1
asS'gorgeous'
p2927
(lp2928
I0
aI1
asS'mord'
p2929
(lp2930
I0
aI1
asS'flat'
p2931
(lp2932
I0
aI1
asS'israel'
p2933
(lp2934
I0
aI1
asS'diamond'
p2935
(lp2936
I0
aI1
asS'company'
p2937
(lp2938
I0
aI1
asS'moneyback'
p2939
(lp2940
I0
aI1
asS'excuse'
p2941
(lp2942
I0
aI1
asS'flag'
p2943
(lp2944
I0
aI1
asS'stick'
p2945
(lp2946
I0
aI1
asS'known'
p2947
(lp2948
I0
aI1
asS'webmaster'
p2949
(lp2950
I0
aI1
asS'glad'
p2951
(lp2952
I0
aI1
asS'bedford'
p2953
(lp2954
I0
aI1
asS'keeping'
p2955
(lp2956
I0
aI1
asS'debates'
p2957
(lp2958
I0
aI1
asS'damien'
p2959
(lp2960
I0
aI1
asS'der'
p2961
(lp2962
I0
aI1
asS'installing'
p2963
(lp2964
I0
aI1
asS'sudden'
p2965
(lp2966
I0
aI1
asS'resources'
p2967
(lp2968
I0
aI1
asS'learn'
p2969
(lp2970
I0
aI1
asS'male'
p2971
(lp2972
I0
aI1
asS'history'
p2973
(lp2974
I0
aI1
asS'beautiful'
p2975
(lp2976
I0
aI1
asS'shark'
p2977
(lp2978
I0
aI1
asS'civilizations'
p2979
(lp2980
I0
aI1
asS'scam'
p2981
(lp2982
I0
aI1
asS'weoffer'
p2983
(lp2984
I0
aI1
asS'xfdf'
p2985
(lp2986
I0
aI1
asS'share'
p2987
(lp2988
I0
aI1
asS'accept'
p2989
(lp2990
I0
aI1
asS'archipelago'
p2991
(lp2992
I0
aI1
asS'numbers'
p2993
(lp2994
I0
aI1
asS'unmounts'
p2995
(lp2996
I0
aI1
asS'cultivate'
p2997
(lp2998
I0
aI1
asS'presently'
p2999
(lp3000
I0
aI1
asS'huge'
p3001
(lp3002
I0
aI1
asS'needs'
p3003
(lp3004
I0
aI1
asS'mai'
p3005
(lp3006
I0
aI1
asS'macfuse'
p3007
(lp3008
I0
aI1
asS'technology'
p3009
(lp3010
I0
aI1
asS'hugo'
p3011
(lp3012
I0
aI1
asS'dienstag'
p3013
(lp3014
I0
aI1
asS'victurnien'
p3015
(lp3016
I0
aI1
asS'johannesburg'
p3017
(lp3018
I0
aI1
asS'tried'
p3019
(lp3020
I0
aI1
asS'fw'
p3021
(lp3022
I0
aI1
asS'sven'
p3023
(lp3024
I0
aI1
asS'coming'
p3025
(lp3026
I0
aI1
asS'verified'
p3027
(lp3028
I0
aI1
asS'yxa'
p3029
(lp3030
I0
aI1
asS'fortean'
p3031
(lp3032
I0
aI1
asS'short'
p3033
(lp3034
I0
aI1
asS'dotan'
p3035
(lp3036
I0
aI1
asS'birse'
p3037
(lp3038
I0
aI1
asS'register'
p3039
(lp3040
I0
aI1
asS'bugs'
p3041
(lp3042
I0
aI1
asS'responsibility'
p3043
(lp3044
I0
aI1
asS'pay'
p3045
(lp3046
I0
aI1
asS'pleasure'
p3047
(lp3048
I0
aI1
asS'dream'
p3049
(lp3050
I0
aI1
asS'playing'
p3051
(lp3052
I0
aI1
asS'chicks'
p3053
(lp3054
I0
aI1
asS'passages'
p3055
(lp3056
I0
aI1
asS'help'
p3057
(lp3058
I0
aI1
asS'september'
p3059
(lp3060
I0
aI1
asS'essence'
p3061
(lp3062
I0
aI1
asS'soon'
p3063
(lp3064
I0
aI1
asS'installed'
p3065
(lp3066
I0
aI1
asS'thermal'
p3067
(lp3068
I0
aI1
asS'paper'
p3069
(lp3070
I0
aI1
asS'scott'
p3071
(lp3072
I0
aI1
asS'replies'
p3073
(lp3074
I0
aI1
asS'installer'
p3075
(lp3076
I0
aI1
asS'suffer'
p3077
(lp3078
I0
aI1
asS'xterms'
p3079
(lp3080
I0
aI1
asS'member'
p3081
(lp3082
I0
aI1
asS'alle'
p3083
(lp3084
I0
aI1
asS'arial'
p3085
(lp3086
I0
aI1
asS'actually'
p3087
(lp3088
I0
aI1
asS'late'
p3089
(lp3090
I0
aI1
asS'diskless'
p3091
(lp3092
I0
aI1
asS'ultrahot'
p3093
(lp3094
I0
aI1
asS'razored'
p3095
(lp3096
I0
aI1
asS'governments'
p3097
(lp3098
I0
aI1
asS'wouldn'
p3099
(lp3100
I0
aI1
asS'good'
p3101
(lp3102
I0
aI1
asS'return'
p3103
(lp3104
I0
aI1
asS'kingly'
p3105
(lp3106
I0
aI1
asS'knocking'
p3107
(lp3108
I0
aI1
asS'complain'
p3109
(lp3110
I0
aI1
asS'instructions'
p3111
(lp3112
I0
aI1
asS'marcus'
p3113
(lp3114
I0
aI1
asS'frequented'
p3115
(lp3116
I0
aI1
asS'everytime'
p3117
(lp3118
I0
aI1
asS'veering'
p3119
(lp3120
I0
aI1
asS'courses'
p3121
(lp3122
I0
aI1
asS'goofy'
p3123
(lp3124
I0
aI1
asS'paswater'
p3125
(lp3126
I0
aI1
asS'formail'
p3127
(lp3128
I0
aI1
asS'fisa'
p3129
(lp3130
I0
aI1
asS'england'
p3131
(lp3132
I0
aI1
asS'weight'
p3133
(lp3134
I0
aI1
asS'generation'
p3135
(lp3136
I0
aI1
asS'jagoj'
p3137
(lp3138
I0
aI1
asS'reduce'
p3139
(lp3140
I0
aI1
asS'idea'
p3141
(lp3142
I0
aI1
asS'police'
p3143
(lp3144
I0
aI1
asS'mackenzie'
p3145
(lp3146
I0
aI1
asS'extended'
p3147
(lp3148
I0
aI1
asS'connect'
p3149
(lp3150
I0
aI1
asS'operation'
p3151
(lp3152
I0
aI1
asS'exyl'
p3153
(lp3154
I0
aI1
asS'event'
p3155
(lp3156
I0
aI1
asS'deals'
p3157
(lp3158
I0
aI1
asS'shriver'
p3159
(lp3160
I0
aI1
asS'grundfalsch'
p3161
(lp3162
I0
aI1
asS'foundstone'
p3163
(lp3164
I0
aI1
asS'robert'
p3165
(lp3166
I0
aI1
asS'valeurs'
p3167
(lp3168
I0
aI1
asS'research'
p3169
(lp3170
I0
aI1
asS'acting'
p3171
(lp3172
I0
aI1
asS'health'
p3173
(lp3174
I0
aI1
asS'reminder'
p3175
(lp3176
I0
aI1
asS'meira'
p3177
(lp3178
I0
aI1
asS'issue'
p3179
(lp3180
I0
aI1
asS'mittens'
p3181
(lp3182
I0
aI1
asS'egypt'
p3183
(lp3184
I0
aI1
asS'benjamin'
p3185
(lp3186
I0
aI1
asS'lifesyle'
p3187
(lp3188
I0
aI1
asS'lawrence'
p3189
(lp3190
I0
aI1
asS'driver'
p3191
(lp3192
I0
aI1
asS'friday'
p3193
(lp3194
I0
aI1
asS'guess'
p3195
(lp3196
I0
aI1
asS'pub'
p3197
(lp3198
I0
aI1
asS'labs'
p3199
(lp3200
I0
aI1
asS'reason'
p3201
(lp3202
I0
aI1
asS'giveaway'
p3203
(lp3204
I0
aI1
asS'members'
p3205
(lp3206
I0
aI1
asS'sjoerd'
p3207
(lp3208
I0
aI1
asS'ask'
p3209
(lp3210
I0
aI1
asS'beginning'
p3211
(lp3212
I0
aI1
asS'guy'
p3213
(lp3214
I0
aI1
asS'epicenter'
p3215
(lp3216
I0
aI1
asS'radeonhd'
p3217
(lp3218
I0
aI1
asS'thread'
p3219
(lp3220
I0
aI1
asS'leonardo'
p3221
(lp3222
I0
aI1
asS'sheikh'
p3223
(lp3224
I0
aI1
asS'american'
p3225
(lp3226
I0
aI1
asS'w'
p3227
(lp3228
I0
aI1
asS'anecdote'
p3229
(lp3230
I0
aI1
asS'castle'
p3231
(lp3232
I0
aI1
asS'disclaimer'
p3233
(lp3234
I0
aI1
asS'hyderabad'
p3235
(lp3236
I0
aI1
asS'vpxl'
p3237
(lp3238
I0
aI1
asS'forwards'
p3239
(lp3240
I0
aI1
asS'feel'
p3241
(lp3242
I0
aI1
asS'girls'
p3243
(lp3244
I0
aI1
asS'webforms'
p3245
(lp3246
I0
aI1
asS'misc'
p3247
(lp3248
I0
aI1
asS'number'
p3249
(lp3250
I0
aI1
asS'preservation'
p3251
(lp3252
I0
aI1
asS'says'
p3253
(lp3254
I0
aI1
asS'miss'
p3255
(lp3256
I0
aI1
asS'razor'
p3257
(lp3258
I0
aI1
asS'story'
p3259
(lp3260
I0
aI1
asS'script'
p3261
(lp3262
I0
aI1
asS'benedict'
p3263
(lp3264
I0
aI1
asS'gpg'
p3265
(lp3266
I0
aI1
asS'whoops'
p3267
(lp3268
I0
aI1
asS'alcman'
p3269
(lp3270
I0
aI1
asS'ballistic'
p3271
(lp3272
I0
aI1
asS'nigeria'
p3273
(lp3274
I0
aI1
asS'store'
p3275
(lp3276
I0
aI1
asS'selling'
p3277
(lp3278
I0
aI1
asS'humborg'
p3279
(lp3280
I0
aI1
asS'park'
p3281
(lp3282
I0
aI1
asS'immediate'
p3283
(lp3284
I0
aI1
asS'jordan'
p3285
(lp3286
I0
aI1
asS'doctors'
p3287
(lp3288
I0
aI1
asS'believe'
p3289
(lp3290
I0
aI1
asS'center'
p3291
(lp3292
I0
aI1
asS'kind'
p3293
(lp3294
I0
aI1
asS'hiya'
p3295
(lp3296
I0
aI1
asS'dtl'
p3297
(lp3298
I0
aI1
asS'geege'
p3299
(lp3300
I0
aI1
asS'double'
p3301
(lp3302
I0
aI1
asS'symmetricom'
p3303
(lp3304
I0
aI1
asS'urbano'
p3305
(lp3306
I0
aI1
asS'greg'
p3307
(lp3308
I0
aI1
asS'supposed'
p3309
(lp3310
I0
aI1
asS'treated'
p3311
(lp3312
I0
aI1
asS'googleon'
p3313
(lp3314
I0
aI1
asS'honeys'
p3315
(lp3316
I0
aI1
asS'pedestrian'
p3317
(lp3318
I0
aI1
asS'reinhart'
p3319
(lp3320
I0
aI1
asS'speaking'
p3321
(lp3322
I0
aI1
asS'enhancing'
p3323
(lp3324
I0
aI1
asS'dancing'
p3325
(lp3326
I0
aI1
asS'spaghetti'
p3327
(lp3328
I0
aI1
asS'valdis'
p3329
(lp3330
I0
aI1
asS'walk'
p3331
(lp3332
I0
aI1
asS'raftery'
p3333
(lp3334
I0
aI1
asS'philippines'
p3335
(lp3336
I0
aI1
asS'finding'
p3337
(lp3338
I0
aI1
asS'commentary'
p3339
(lp3340
I0
aI1
asS'hutchison'
p3341
(lp3342
I0
aI1
asS'play'
p3343
(lp3344
I0
aI1
asS'oscon'
p3345
(lp3346
I0
aI1
asS'quote'
p3347
(lp3348
I0
aI1
asS'reach'
p3349
(lp3350
I0
aI1
asS'iful'
p3351
(lp3352
I0
aI1
asS'significant'
p3353
(lp3354
I0
aI1
asS'kat'
p3355
(lp3356
I0
aI1
asS'services'
p3357
(lp3358
I0
aI1
asS'approved'
p3359
(lp3360
I0
aI1
asS'kiddies'
p3361
(lp3362
I0
aI1
asS'windows'
p3363
(lp3364
I0
aI1
asS'clear'
p3365
(lp3366
I0
aI1
asS'covek'
p3367
(lp3368
I0
aI1
asS'realised'
p3369
(lp3370
I0
aI1
asS'attacking'
p3371
(lp3372
I0
aI1
asS'lying'
p3373
(lp3374
I0
aI1
asS'stones'
p3375
(lp3376
I0
aI1
asS'buiwud'
p3377
(lp3378
I0
aI1
asS'ugo'
p3379
(lp3380
I0
aI1
asS'restore'
p3381
(lp3382
I0
aI1
asS'authors'
p3383
(lp3384
I0
aI1
asS'jared'
p3385
(lp3386
I0
aI1
asS'font'
p3387
(lp3388
I0
aI1
asS'impact'
p3389
(lp3390
I0
aI1
asS'cell'
p3391
(lp3392
I0
aI1
asS'copyright'
p3393
(lp3394
I0
aI1
asS'socijalisticka'
p3395
(lp3396
I0
aI1
asS'merger'
p3397
(lp3398
I0
aI1
asS'writes'
p3399
(lp3400
I0
aI1
asS'waiting'
p3401
(lp3402
I0
aI1
asS'failed'
p3403
(lp3404
I0
aI1
asS'viagra'
p3405
(lp3406
I0
aI1
asS'wayne'
p3407
(lp3408
I0
aI1
asS'central'
p3409
(lp3410
I0
aI1
asS'pretty'
p3411
(lp3412
I0
aI1
asS'insurance'
p3413
(lp3414
I0
aI1
asS'discuss'
p3415
(lp3416
I0
aI1
asS'hotmail'
p3417
(lp3418
I0
aI1
asS'hit'
p3419
(lp3420
I0
aI1
asS'custodian'
p3421
(lp3422
I0
aI1
asS'banned'
p3423
(lp3424
I0
aI1
asS'sunny'
p3425
(lp3426
I0
aI1
asS'famous'
p3427
(lp3428
I0
aI1
asS'b'
p3429
(lp3430
I0
aI1
asS'reply'
p3431
(lp3432
I0
aI1
asS'giraudoux'
p3433
(lp3434
I0
aI1
asS'emails'
p3435
(lp3436
I0
aI1
asS'restart'
p3437
(lp3438
I0
aI1
asS'alexander'
p3439
(lp3440
I0
aI1
asS'brendan'
p3441
(lp3442
I0
aI1
asS'intrude'
p3443
(lp3444
I0
aI1
asS'remove'
p3445
(lp3446
I0
aI1
asS'garcia'
p3447
(lp3448
I0
aI1
asS'common'
p3449
(lp3450
I0
aI1
asS'withdrawal'
p3451
(lp3452
I0
aI1
asS'x'
p3453
(lp3454
I0
aI1
asS'vincent'
p3455
(lp3456
I0
aI1
asS'sthu'
p3457
(lp3458
I0
aI1
asS'wrote'
p3459
(lp3460
I0
aI1
asS'set'
p3461
(lp3462
I0
aI1
asS'sep'
p3463
(lp3464
I0
aI1
asS'activists'
p3465
(lp3466
I0
aI1
asS'sex'
p3467
(lp3468
I0
aI1
asS'culture'
p3469
(lp3470
I0
aI1
asS'dumb'
p3471
(lp3472
I0
aI1
asS'nations'
p3473
(lp3474
I0
aI1
asS'mullahs'
p3475
(lp3476
I0
aI1
asS'vitamins'
p3477
(lp3478
I0
aI1
asS'shepherdless'
p3479
(lp3480
I0
aI1
asS'predvodjena'
p3481
(lp3482
I0
aI1
asS'movie'
p3483
(lp3484
I0
aI1
asS'wow'
p3485
(lp3486
I0
aI1
asS'currently'
p3487
(lp3488
I0
aI1
asS'won'
p3489
(lp3490
I0
aI1
asS'probably'
p3491
(lp3492
I0
aI1
asS'numerous'
p3493
(lp3494
I0
aI1
asS'funeral'
p3495
(lp3496
I0
aI1
asS'ceglia'
p3497
(lp3498
I0
aI1
asS'available'
p3499
(lp3500
I0
aI1
asS'genes'
p3501
(lp3502
I0
aI1
asS'recently'
p3503
(lp3504
I0
aI1
asS'targeted'
p3505
(lp3506
I0
aI1
asS'sold'
p3507
(lp3508
I0
aI1
asS'attention'
p3509
(lp3510
I0
aI1
asS'rares'
p3511
(lp3512
I0
aI1
asS'distinguish'
p3513
(lp3514
I0
aI1
asS'luiz'
p3515
(lp3516
I0
aI1
asS'c'
p3517
(lp3518
I0
aI1
asS'cryptic'
p3519
(lp3520
I0
aI1
asS'prescription'
p3521
(lp3522
I0
aI1
asS'reverse'
p3523
(lp3524
I0
aI1
asS'retrouve'
p3525
(lp3526
I0
aI1
asS'powers'
p3527
(lp3528
I0
aI1
asS'pdt'
p3529
(lp3530
I0
aI1
asS'sensitive'
p3531
(lp3532
I0
aI1
asS'connection'
p3533
(lp3534
I0
aI1
asS'forgotten'
p3535
(lp3536
I0
aI1
asS'experimental'
p3537
(lp3538
I0
aI1
asS'upgraded'
p3539
(lp3540
I0
aI1
asS'point'
p3541
(lp3542
I0
aI1
asS'sepsis'
p3543
(lp3544
I0
aI1
asS'loan'
p3545
(lp3546
I0
aI1
asS'community'
p3547
(lp3548
I0
aI1
asS'agents'
p3549
(lp3550
I0
aI1
asS'linux'
p3551
(lp3552
I0
aI1
asS'macworld'
p3553
(lp3554
I0
aI1
asS'described'
p3555
(lp3556
I0
aI1
asS'dun'
p3557
(lp3558
I0
aI1
asS'skrev'
p3559
(lp3560
I0
aI1
asS'create'
p3561
(lp3562
I0
aI1
asS'political'
p3563
(lp3564
I0
aI1
asS'add'
p3565
(lp3566
I0
aI1
asS'pc'
p3567
(lp3568
I0
aI1
asS'creamfields'
p3569
(lp3570
I0
aI1
asS'damn'
p3571
(lp3572
I0
aI1
asS'ireland'
p3573
(lp3574
I0
aI1
asS'pe'
p3575
(lp3576
I0
aI1
asS'umarzuki'
p3577
(lp3578
I0
aI1
asS'threaten'
p3579
(lp3580
I0
aI1
asS'benson'
p3581
(lp3582
I0
aI1
asS'pm'
p3583
(lp3584
I0
aI1
asS'firm'
p3585
(lp3586
I0
aI1
asS'jesuit'
p3587
(lp3588
I0
aI1
asS'ram'
p3589
(lp3590
I0
aI1
asS'understant'
p3591
(lp3592
I0
aI1
asS'exempt'
p3593
(lp3594
I0
aI1
asS'gas'
p3595
(lp3596
I0
aI1
asS'garrigues'
p3597
(lp3598
I0
aI1
asS'vaguely'
p3599
(lp3600
I0
aI1
asS'katherine'
p3601
(lp3602
I0
aI1
asS'heute'
p3603
(lp3604
I0
aI1
asS'demand'
p3605
(lp3606
I0
aI1
asS'prices'
p3607
(lp3608
I0
aI1
asS'deepwater'
p3609
(lp3610
I0
aI1
asS'gab'
p3611
(lp3612
I0
aI1
asS'look'
p3613
(lp3614
I0
aI1
asS'talking'
p3615
(lp3616
I0
aI1
asS'solid'
p3617
(lp3618
I0
aI1
asS'judicial'
p3619
(lp3620
I0
aI1
asS'reliable'
p3621
(lp3622
I0
aI1
asS'pace'
p3623
(lp3624
I0
aI1
asS'replaced'
p3625
(lp3626
I0
aI1
asS'error'
p3627
(lp3628
I0
aI1
asS'robin'
p3629
(lp3630
I0
aI1
asS'adjusts'
p3631
(lp3632
I0
aI1
asS'von'
p3633
(lp3634
I0
aI1
asS'owen'
p3635
(lp3636
I0
aI1
asS'binding'
p3637
(lp3638
I0
aI1
asS'decoration'
p3639
(lp3640
I0
aI1
asS'rio'
p3641
(lp3642
I0
aI1
asS'reads'
p3643
(lp3644
I0
aI1
asS'vor'
p3645
(lp3646
I0
aI1
asS'ready'
p3647
(lp3648
I0
aI1
asS'carbon'
p3649
(lp3650
I0
aI1
asS'ihaqp'
p3651
(lp3652
I0
aI1
asS'whitehead'
p3653
(lp3654
I0
aI1
asS'albany'
p3655
(lp3656
I0
aI1
asS'guido'
p3657
(lp3658
I0
aI1
asS'james'
p3659
(lp3660
I0
aI1
asS'grand'
p3661
(lp3662
I0
aI1
asS'dozen'
p3663
(lp3664
I0
aI1
asS'development'
p3665
(lp3666
I0
aI1
asS'surreal'
p3667
(lp3668
I0
aI1
asS'comprehensive'
p3669
(lp3670
I0
aI1
asS'yannick'
p3671
(lp3672
I0
aI1
asS'leopard'
p3673
(lp3674
I0
aI1
asS'yesterday'
p3675
(lp3676
I0
aI1
asS'cement'
p3677
(lp3678
I0
aI1
asS'alert'
p3679
(lp3680
I0
aI1
asS'domains'
p3681
(lp3682
I0
aI1
asS'viewing'
p3683
(lp3684
I0
aI1
asS'moving'
p3685
(lp3686
I0
aI1
asS'user'
p3687
(lp3688
I0
aI1
asS'recent'
p3689
(lp3690
I0
aI1
asS'database'
p3691
(lp3692
I0
aI1
asS'laden'
p3693
(lp3694
I0
aI1
asS'spent'
p3695
(lp3696
I0
aI1
asS'analysis'
p3697
(lp3698
I0
aI1
asS'ynyup'
p3699
(lp3700
I0
aI1
asS'y'
p3701
(lp3702
I0
aI1
asS'beberg'
p3703
(lp3704
I0
aI1
asS'spend'
p3705
(lp3706
I0
aI1
asS'extortionate'
p3707
(lp3708
I0
aI1
asS'xserver'
p3709
(lp3710
I0
aI1
asS'spamassassin'
p3711
(lp3712
I0
aI1
asS'snow'
p3713
(lp3714
I0
aI1
asS'effector'
p3715
(lp3716
I0
aI1
asS'hellenizing'
p3717
(lp3718
I0
aI1
asS'questions'
p3719
(lp3720
I0
aI1
asS'useful'
p3721
(lp3722
I0
aI1
asS'alternative'
p3723
(lp3724
I0
aI1
asS'simo'
p3725
(lp3726
I0
aI1
asS'rundown'
p3727
(lp3728
I0
aI1
asS'cut'
p3729
(lp3730
I0
aI1
asS'readers'
p3731
(lp3732
I0
aI1
asS'eeri'
p3733
(lp3734
I0
aI1
asS'nikki'
p3735
(lp3736
I0
aI1
asS'guaranteed'
p3737
(lp3738
I0
aI1
asS'source'
p3739
(lp3740
I0
aI1
asS'location'
p3741
(lp3742
I0
aI1
asS'hoerl'
p3743
(lp3744
I0
aI1
asS'surprised'
p3745
(lp3746
I0
aI1
asS'build'
p3747
(lp3748
I0
aI1
asS'bin'
p3749
(lp3750
I0
aI1
asS'australia'
p3751
(lp3752
I0
aI1
asS'habeas'
p3753
(lp3754
I0
aI1
asS'finalize'
p3755
(lp3756
I0
aI1
asS'big'
p3757
(lp3758
I0
aI1
asS'couple'
p3759
(lp3760
I0
aI1
asS'xterm'
p3761
(lp3762
I0
aI1
asS'wuhuqoqaozuk'
p3763
(lp3764
I0
aI1
asS'private'
p3765
(lp3766
I0
aI1
asS'kask'
p3767
(lp3768
I0
aI1
asS'necessary'
p3769
(lp3770
I0
aI1
asS'bit'
p3771
(lp3772
I0
aI1
asS'salutes'
p3773
(lp3774
I0
aI1
asS'richie'
p3775
(lp3776
I0
aI1
asS'd'
p3777
(lp3778
I0
aI1
asS'xenical'
p3779
(lp3780
I0
aI1
asS'disks'
p3781
(lp3782
I0
aI1
asS'ignore'
p3783
(lp3784
I0
aI1
asS'collect'
p3785
(lp3786
I0
aI1
asS'arthur'
p3787
(lp3788
I0
aI1
asS'continue'
p3789
(lp3790
I0
aI1
asS'joebar'
p3791
(lp3792
I0
aI1
asS'popular'
p3793
(lp3794
I0
aI1
asS'healthy'
p3795
(lp3796
I0
aI1
asS'bulker'
p3797
(lp3798
I0
aI1
asS'google'
p3799
(lp3800
I0
aI1
asS'presenter'
p3801
(lp3802
I0
aI1
asS'spring'
p3803
(lp3804
I0
aI1
asS'jsf'
p3805
(lp3806
I0
aI1
asS'understood'
p3807
(lp3808
I0
aI1
asS'mailsize'
p3809
(lp3810
I0
aI1
asS'palm'
p3811
(lp3812
I0
aI1
asS'sight'
p3813
(lp3814
I0
aI1
asS'curious'
p3815
(lp3816
I0
aI1
asS'lightning'
p3817
(lp3818
I0
aI1
asS'paginated'
p3819
(lp3820
I0
aI1
asS'broadband'
p3821
(lp3822
I0
aI1
asS'singing'
p3823
(lp3824
I0
aI1
asS'integration'
p3825
(lp3826
I0
aI1
asS'cassiano'
p3827
(lp3828
I0
aI1
asS'gingras'
p3829
(lp3830
I0
aI1
asS'eructed'
p3831
(lp3832
I0
aI1
asS'temple'
p3833
(lp3834
I0
aI1
asS'run'
p3835
(lp3836
I0
aI1
asS'tabor'
p3837
(lp3838
I0
aI1
asS'martin'
p3839
(lp3840
I0
aI1
asS'continuing'
p3841
(lp3842
I0
aI1
asS'confidence'
p3843
(lp3844
I0
aI1
asS'yamasaki'
p3845
(lp3846
I0
aI1
asS'lossesstock'
p3847
(lp3848
I0
aI1
asS'weil'
p3849
(lp3850
I0
aI1
asS'neutra'
p3851
(lp3852
I0
aI1
asS'major'
p3853
(lp3854
I0
aI1
asS'memorabilia'
p3855
(lp3856
I0
aI1
asS'russell'
p3857
(lp3858
I0
aI1
asS'pipeline'
p3859
(lp3860
I0
aI1
asS'bakar'
p3861
(lp3862
I0
aI1
asS'pfizer'
p3863
(lp3864
I0
aI1
asS'papua'
p3865
(lp3866
I0
aI1
asS'stuart'
p3867
(lp3868
I0
aI1
asS'canning'
p3869
(lp3870
I0
aI1
asS'wanna'
p3871
(lp3872
I0
aI1
asS'block'
p3873
(lp3874
I0
aI1
asS'repair'
p3875
(lp3876
I0
aI1
asS'tcpa'
p3877
(lp3878
I0
aI1
asS'jimmy'
p3879
(lp3880
I0
aI1
asS'osamu'
p3881
(lp3882
I0
aI1
asS'helvetica'
p3883
(lp3884
I0
aI1
asS'servers'
p3885
(lp3886
I0
aI1
asS'osama'
p3887
(lp3888
I0
aI1
asS'steven'
p3889
(lp3890
I0
aI1
asS'drifted'
p3891
(lp3892
I0
aI1
asS'rolls'
p3893
(lp3894
I0
aI1
asS'risk'
p3895
(lp3896
I0
aI1
asS'jockey'
p3897
(lp3898
I0
aI1
asS'span'
p3899
(lp3900
I0
aI1
asS'classical'
p3901
(lp3902
I0
aI1
asS'interacted'
p3903
(lp3904
I0
aI1
asS'spending'
p3905
(lp3906
I0
aI1
asS'question'
p3907
(lp3908
I0
aI1
asS'long'
p3909
(lp3910
I0
aI1
asS'custom'
p3911
(lp3912
I0
aI1
asS'baguis'
p3913
(lp3914
I0
aI1
asS'keating'
p3915
(lp3916
I0
aI1
asS'vienne'
p3917
(lp3918
I0
aI1
asS'elvaker'
p3919
(lp3920
I0
aI1
asS'files'
p3921
(lp3922
I0
aI1
asS'invite'
p3923
(lp3924
I0
aI1
asS'boyd'
p3925
(lp3926
I0
aI1
asS'jewish'
p3927
(lp3928
I0
aI1
asS'byrne'
p3929
(lp3930
I0
aI1
asS'murphy'
p3931
(lp3932
I0
aI1
asS'engelhard'
p3933
(lp3934
I0
aI1
asS'ewanu'
p3935
(lp3936
I0
aI1
asS'pounder'
p3937
(lp3938
I0
aI1
asS'link'
p3939
(lp3940
I0
aI1
asS'filed'
p3941
(lp3942
I0
aI1
asS'russian'
p3943
(lp3944
I0
aI1
asS'jacko'
p3945
(lp3946
I0
aI1
asS'line'
p3947
(lp3948
I0
aI1
asS'posted'
p3949
(lp3950
I0
aI1
asS'info'
p3951
(lp3952
I0
aI1
asS'exposes'
p3953
(lp3954
I0
aI1
asS'reload'
p3955
(lp3956
I0
aI1
asS'uw'
p3957
(lp3958
I0
aI1
asS'clips'
p3959
(lp3960
I0
aI1
asS'mobile'
p3961
(lp3962
I0
aI1
asS'redress'
p3963
(lp3964
I0
aI1
asS'exploration'
p3965
(lp3966
I0
aI1
asS'uh'
p3967
(lp3968
I0
aI1
asS'uk'
p3969
(lp3970
I0
aI1
asS'utu'
p3971
(lp3972
I0
aI1
asS'autonomous'
p3973
(lp3974
I0
aI1
asS'similar'
p3975
(lp3976
I0
aI1
asS'called'
p3977
(lp3978
I0
aI1
asS'v'
p3979
(lp3980
I0
aI1
asS'ordered'
p3981
(lp3982
I0
aI1
asS'webletter'
p3983
(lp3984
I0
aI1
asS'defined'
p3985
(lp3986
I0
aI1
asS'engineering'
p3987
(lp3988
I0
aI1
asS'warning'
p3989
(lp3990
I0
aI1
asS'lcds'
p3991
(lp3992
I0
aI1
asS'cafe'
p3993
(lp3994
I0
aI1
asS'anthology'
p3995
(lp3996
I0
aI1
asS'hanes'
p3997
(lp3998
I0
aI1
asS'peace'
p3999
(lp4000
I0
aI1
asS'soulthe'
p4001
(lp4002
I0
aI1
asS'nick'
p4003
(lp4004
I0
aI1
asS'politicians'
p4005
(lp4006
I0
aI1
asS'codec'
p4007
(lp4008
I0
aI1
asS'actors'
p4009
(lp4010
I0
aI1
asS'nice'
p4011
(lp4012
I0
aI1
asS'draw'
p4013
(lp4014
I0
aI1
asS'apparent'
p4015
(lp4016
I0
aI1
asS'users'
p4017
(lp4018
I0
aI1
asS'provided'
p4019
(lp4020
I0
aI1
asS'problems'
p4021
(lp4022
I0
aI1
asS'breasts'
p4023
(lp4024
I0
aI1
asS'medina'
p4025
(lp4026
I0
aI1
asS'helping'
p4027
(lp4028
I0
aI1
asS'meaning'
p4029
(lp4030
I0
aI1
asS'prepares'
p4031
(lp4032
I0
aI1
asS'tmt'
p4033
(lp4034
I0
aI1
asS'eirikur'
p4035
(lp4036
I0
aI1
asS'chocolate'
p4037
(lp4038
I0
aI1
asS'toponce'
p4039
(lp4040
I0
aI1
asS'hackney'
p4041
(lp4042
I0
aI1
asS'e'
p4043
(lp4044
I0
aI1
asS'consumer'
p4045
(lp4046
I0
aI1
asS'required'
p4047
(lp4048
I0
aI1
asS'walked'
p4049
(lp4050
I0
aI1
asS'microsoft'
p4051
(lp4052
I0
aI1
asS'nasa'
p4053
(lp4054
I0
aI1
asS'ashfield'
p4055
(lp4056
I0
aI1
asS'factually'
p4057
(lp4058
I0
aI1
asS'dvt'
p4059
(lp4060
I0
aI1
asS'having'
p4061
(lp4062
I0
aI1
asS'pft'
p4063
(lp4064
I0
aI1
asS'aguilera'
p4065
(lp4066
I0
aI1
asS'code'
p4067
(lp4068
I0
aI1
asS'partial'
p4069
(lp4070
I0
aI1
asS'yhatus'
p4071
(lp4072
I0
aI1
asS'saying'
p4073
(lp4074
I0
aI1
asS'rants'
p4075
(lp4076
I0
aI1
asS'resistance'
p4077
(lp4078
I0
aI1
asS'gg'
p4079
(lp4080
I0
aI1
asS'nuno'
p4081
(lp4082
I0
aI1
asS'milfhunter'
p4083
(lp4084
I0
aI1
asS'legal'
p4085
(lp4086
I0
aI1
asS'issues'
p4087
(lp4088
I0
aI1
asS'simon'
p4089
(lp4090
I0
aI1
asS'harvest'
p4091
(lp4092
I0
aI1
asS'send'
p4093
(lp4094
I0
aI1
asS'include'
p4095
(lp4096
I0
aI1
asS'friendly'
p4097
(lp4098
I0
aI1
asS'sent'
p4099
(lp4100
I0
aI1
asS'skywriter'
p4101
(lp4102
I0
aI1
asS'barrera'
p4103
(lp4104
I0
aI1
asS'garden'
p4105
(lp4106
I0
aI1
asS'continues'
p4107
(lp4108
I0
aI1
asS'putting'
p4109
(lp4110
I0
aI1
asS'planprice'
p4111
(lp4112
I0
aI1
asS'telling'
p4113
(lp4114
I0
aI1
asS'lasik'
p4115
(lp4116
I0
aI1
asS'libby'
p4117
(lp4118
I0
aI1
asS'magic'
p4119
(lp4120
I0
aI1
asS'transmission'
p4121
(lp4122
I0
aI1
asS'button'
p4123
(lp4124
I0
aI1
asS'michael'
p4125
(lp4126
I0
aI1
asS'try'
p4127
(lp4128
I0
aI1
asS'compositing'
p4129
(lp4130
I0
aI1
asS'dealy'
p4131
(lp4132
I0
aI1
asS'barbara'
p4133
(lp4134
I0
aI1
asS'noted'
p4135
(lp4136
I0
aI1
asS'odonoghue'
p4137
(lp4138
I0
aI1
asS'fetchmail'
p4139
(lp4140
I0
aI1
asS'jump'
p4141
(lp4142
I0
aI1
asS'crook'
p4143
(lp4144
I0
aI1
asS'video'
p4145
(lp4146
I0
aI1
asS'picked'
p4147
(lp4148
I0
aI1
asS'download'
p4149
(lp4150
I0
aI1
asS'odd'
p4151
(lp4152
I0
aI1
asS'click'
p4153
(lp4154
I0
aI1
asS'folk'
p4155
(lp4156
I0
aI1
asS'victor'
p4157
(lp4158
I0
aI1
asS'slabo'
p4159
(lp4160
I0
aI1
asS'newrelease'
p4161
(lp4162
I0
aI1
asS'plays'
p4163
(lp4164
I0
aI1
asS'power'
p4165
(lp4166
I0
aI1
asS'giving'
p4167
(lp4168
I0
aI1
asS'celu'
p4169
(lp4170
I0
aI1
asS'metzmeier'
p4171
(lp4172
I0
aI1
asS'access'
p4173
(lp4174
I0
aI1
asS'xxxxxxxxx'
p4175
(lp4176
I0
aI1
asS'payday'
p4177
(lp4178
I0
aI1
asS'carbonara'
p4179
(lp4180
I0
aI1
asS'body'
p4181
(lp4182
I0
aI1
asS'justification'
p4183
(lp4184
I0
aI1
asS'led'
p4185
(lp4186
I0
aI1
asS'exchange'
p4187
(lp4188
I0
aI1
asS'healthmedia'
p4189
(lp4190
I0
aI1
asS'euok'
p4191
(lp4192
I0
aI1
asS'stateful'
p4193
(lp4194
I0
aI1
asS'desired'
p4195
(lp4196
I0
aI1
asS'intercept'
p4197
(lp4198
I0
aI1
asS'let'
p4199
(lp4200
I0
aI1
asS'luis'
p4201
(lp4202
I0
aI1
asS'great'
p4203
(lp4204
I0
aI1
asS'receive'
p4205
(lp4206
I0
aI1
asS'replenishables'
p4207
(lp4208
I0
aI1
asS'products'
p4209
(lp4210
I0
aI1
asS'kathmandu'
p4211
(lp4212
I0
aI1
asS'vipul'
p4213
(lp4214
I0
aI1
asS'makes'
p4215
(lp4216
I0
aI1
asS'firefox'
p4217
(lp4218
I0
aI1
asS'apple'
p4219
(lp4220
I0
aI1
asS'clark'
p4221
(lp4222
I0
aI1
asS'claim'
p4223
(lp4224
I0
aI1
asS'apr'
p4225
(lp4226
I0
aI1
asS'app'
p4227
(lp4228
I0
aI1
asS'apt'
p4229
(lp4230
I0
aI1
asS'sgi'
p4231
(lp4232
I0
aI1
asS'odrekla'
p4233
(lp4234
I0
aI1
asS'api'
p4235
(lp4236
I0
aI1
asS'michel'
p4237
(lp4238
I0
aI1
asS'cdale'
p4239
(lp4240
I0
aI1
asS'tools'
p4241
(lp4242
I0
aI1
asS'use'
p4243
(lp4244
I0
aI1
asS'andreas'
p4245
(lp4246
I0
aI1
asS'usb'
p4247
(lp4248
I0
aI1
asS'usa'
p4249
(lp4250
I0
aI1
asS'doodle'
p4251
(lp4252
I0
aI1
asS'duplicate'
p4253
(lp4254
I0
aI1
asS'oilish'
p4255
(lp4256
I0
aI1
asS'solocdm'
p4257
(lp4258
I0
aI1
asS'peloponnesus'
p4259
(lp4260
I0
aI1
asS'sort'
p4261
(lp4262
I0
aI1
asS'oo'
p4263
(lp4264
I0
aI1
asS'popped'
p4265
(lp4266
I0
aI1
asS'slim'
p4267
(lp4268
I0
aI1
asS'treasuring'
p4269
(lp4270
I0
aI1
asS'mccaffery'
p4271
(lp4272
I0
aI1
asS'unplug'
p4273
(lp4274
I0
aI1
asS'opposing'
p4275
(lp4276
I0
aI1
asS'labelled'
p4277
(lp4278
I0
aI1
asS'lifestyle'
p4279
(lp4280
I0
aI1
asS'iii'
p4281
(lp4282
I0
aI1
asS'netscape'
p4283
(lp4284
I0
aI1
asS'women'
p4285
(lp4286
I0
aI1
asS'reconstructed'
p4287
(lp4288
I0
aI1
asS'account'
p4289
(lp4290
I0
aI1
asS'igedee'
p4291
(lp4292
I0
aI1
asS'f'
p4293
(lp4294
I0
aI1
asS'package'
p4295
(lp4296
I0
aI1
asS'benefitting'
p4297
(lp4298
I0
aI1
asS'alexey'
p4299
(lp4300
I0
aI1
asS'camplin'
p4301
(lp4302
I0
aI1
asS'thib'
p4303
(lp4304
I0
aI1
asS'childsupport'
p4305
(lp4306
I0
aI1
asS'control'
p4307
(lp4308
I0
aI1
asS'indulgence'
p4309
(lp4310
I0
aI1
asS'links'
p4311
(lp4312
I0
aI1
asS'lock'
p4313
(lp4314
I0
aI1
asS'sudo'
p4315
(lp4316
I0
aI1
asS'tax'
p4317
(lp4318
I0
aI1
asS'high'
p4319
(lp4320
I0
aI1
asS'gabber'
p4321
(lp4322
I0
aI1
asS'reynolds'
p4323
(lp4324
I0
aI1
asS'native'
p4325
(lp4326
I0
aI1
asS'sir'
p4327
(lp4328
I0
aI1
asS'united'
p4329
(lp4330
I0
aI1
asS'gazyluevaj'
p4331
(lp4332
I0
aI1
asS'portage'
p4333
(lp4334
I0
aI1
asS'hindery'
p4335
(lp4336
I0
aI1
asS'regions'
p4337
(lp4338
I0
aI1
asS'brian'
p4339
(lp4340
I0
aI1
asS'sid'
p4341
(lp4342
I0
aI1
asS'ferdinand'
p4343
(lp4344
I0
aI1
asS'stock'
p4345
(lp4346
I0
aI1
asS'administrator'
p4347
(lp4348
I0
aI1
asS'blackbox'
p4349
(lp4350
I0
aI1
asS'gentoo'
p4351
(lp4352
I0
aI1
asS'watch'
p4353
(lp4354
I0
aI1
asS'act'
p4355
(lp4356
I0
aI1
asS'taca'
p4357
(lp4358
I0
aI1
asS'da'
p4359
(lp4360
I0
aI1
asS'lines'
p4361
(lp4362
I0
aI1
asS'robot'
p4363
(lp4364
I0
aI1
asS'chief'
p4365
(lp4366
I0
aI1
asS'healthcare'
p4367
(lp4368
I0
aI1
asS'infomanager'
p4369
(lp4370
I0
aI1
asS'swimming'
p4371
(lp4372
I0
aI1
asS'secured'
p4373
(lp4374
I0
aI1
asS'antelope'
p4375
(lp4376
I0
aI1
asS'anchordesk'
p4377
(lp4378
I0
aI1
asS'kanker'
p4379
(lp4380
I0
aI1
asS'insight'
p4381
(lp4382
I0
aI1
asS'symbols'
p4383
(lp4384
I0
aI1
asS'dearest'
p4385
(lp4386
I0
aI1
asS'including'
p4387
(lp4388
I0
aI1
asS'looks'
p4389
(lp4390
I0
aI1
asS'mutt'
p4391
(lp4392
I0
aI1
asS'celejar'
p4393
(lp4394
I0
aI1
asS'nasty'
p4395
(lp4396
I0
aI1
asS'chemistry'
p4397
(lp4398
I0
aI1
asS'underwater'
p4399
(lp4400
I0
aI1
asS'le'
p4401
(lp4402
I0
aI1
asS'located'
p4403
(lp4404
I0
aI1
asS'notebooks'
p4405
(lp4406
I0
aI1
asS'interlink'
p4407
(lp4408
I0
aI1
asS'monastery'
p4409
(lp4410
I0
aI1
asS'contemplative'
p4411
(lp4412
I0
aI1
asS'ls'
p4413
(lp4414
I0
aI1
asS'openvpn'
p4415
(lp4416
I0
aI1
asS'jody'
p4417
(lp4418
I0
aI1
asS'criminal'
p4419
(lp4420
I0
aI1
asS'weber'
p4421
(lp4422
I0
aI1
asS'contrail'
p4423
(lp4424
I0
aI1
asS'freeman'
p4425
(lp4426
I0
aI1
asS'crash'
p4427
(lp4428
I0
aI1
asS'hallgrimsson'
p4429
(lp4430
I0
aI1
asS'montenegro'
p4431
(lp4432
I0
aI1
asS'umjwqmqsqse'
p4433
(lp4434
I0
aI1
asS'dan'
p4435
(lp4436
I0
aI1
asS'material'
p4437
(lp4438
I0
aI1
asS'memberlist'
p4439
(lp4440
I0
aI1
asS'snorkel'
p4441
(lp4442
I0
aI1
asS'snake'
p4443
(lp4444
I0
aI1
asS'das'
p4445
(lp4446
I0
aI1
asS'preaty'
p4447
(lp4448
I0
aI1
asS'investor'
p4449
(lp4450
I0
aI1
asS'day'
p4451
(lp4452
I0
aI1
asS'february'
p4453
(lp4454
I0
aI1
asS'damian'
p4455
(lp4456
I0
aI1
asS'auto'
p4457
(lp4458
I0
aI1
asS'tram'
p4459
(lp4460
I0
aI1
asS'university'
p4461
(lp4462
I0
aI1
asS'adjournment'
p4463
(lp4464
I0
aI1
asS'identified'
p4465
(lp4466
I0
aI1
asS'morris'
p4467
(lp4468
I0
aI1
asS'nfs'
p4469
(lp4470
I0
aI1
asS'sender'
p4471
(lp4472
I0
aI1
asS'shortage'
p4473
(lp4474
I0
aI1
asS'bills'
p4475
(lp4476
I0
aI1
asS'baxter'
p4477
(lp4478
I0
aI1
asS'federalists'
p4479
(lp4480
I0
aI1
asS'metv'
p4481
(lp4482
I0
aI1
asS'met'
p4483
(lp4484
I0
aI1
asS'unbelievable'
p4485
(lp4486
I0
aI1
asS'related'
p4487
(lp4488
I0
aI1
asS'alejandro'
p4489
(lp4490
I0
aI1
asS'doubled'
p4491
(lp4492
I0
aI1
asS'mountpoint'
p4493
(lp4494
I0
aI1
asS'morton'
p4495
(lp4496
I0
aI1
asS'special'
p4497
(lp4498
I0
aI1
asS'brkogmynnc'
p4499
(lp4500
I0
aI1
asS'reformism'
p4501
(lp4502
I0
aI1
asS'eugen'
p4503
(lp4504
I0
aI1
asS'kaicheng'
p4505
(lp4506
I0
aI1
asS'settlement'
p4507
(lp4508
I0
aI1
asS'britons'
p4509
(lp4510
I0
aI1
asS'nanananana'
p4511
(lp4512
I0
aI1
asS'supports'
p4513
(lp4514
I0
aI1
asS'integrated'
p4515
(lp4516
I0
aI1
asS'burke'
p4517
(lp4518
I0
aI1
asS'halloechen'
p4519
(lp4520
I0
aI1
asS'wines'
p4521
(lp4522
I0
aI1
asS'nasreddine'
p4523
(lp4524
I0
aI1
asS'alex'
p4525
(lp4526
I0
aI1
asS'completely'
p4527
(lp4528
I0
aI1
asS'khare'
p4529
(lp4530
I0
aI1
asS'usual'
p4531
(lp4532
I0
aI1
asS'philip'
p4533
(lp4534
I0
aI1
asS'ciaran'
p4535
(lp4536
I0
aI1
asS'log'
p4537
(lp4538
I0
aI1
asS'g'
p4539
(lp4540
I0
aI1
asS'membership'
p4541
(lp4542
I0
aI1
asS'times'
p4543
(lp4544
I0
aI1
asS'marcelo'
p4545
(lp4546
I0
aI1
asS'hindus'
p4547
(lp4548
I0
aI1
asS'length'
p4549
(lp4550
I0
aI1
asS'qualification'
p4551
(lp4552
I0
aI1
asS'adrian'
p4553
(lp4554
I0
aI1
asS'deshalb'
p4555
(lp4556
I0
aI1
asS'hussein'
p4557
(lp4558
I0
aI1
asS'retail'
p4559
(lp4560
I0
aI1
asS'austin'
p4561
(lp4562
I0
aI1
asS'scare'
p4563
(lp4564
I0
aI1
asS'south'
p4565
(lp4566
I0
aI1
asS'starih'
p4567
(lp4568
I0
aI1
asS'hrishy'
p4569
(lp4570
I0
aI1
asS'plastics'
p4571
(lp4572
I0
aI1
asS'matthias'
p4573
(lp4574
I0
aI1
asS'powerful'
p4575
(lp4576
I0
aI1
asS'echo'
p4577
(lp4578
I0
aI1
asS'rmal'
p4579
(lp4580
I0
aI1
asS'pgp'
p4581
(lp4582
I0
aI1
asS'reached'
p4583
(lp4584
I0
aI1
asS'noticed'
p4585
(lp4586
I0
aI1
asS'yyyyyyy'
p4587
(lp4588
I0
aI1
asS'fella'
p4589
(lp4590
I0
aI1
asS'righ'
p4591
(lp4592
I0
aI1
asS'monkey'
p4593
(lp4594
I0
aI1
asS'attach'
p4595
(lp4596
I0
aI1
asS'developer'
p4597
(lp4598
I0
aI1
asS'norton'
p4599
(lp4600
I0
aI1
asS'reliaquote'
p4601
(lp4602
I0
aI1
asS'searchsecurity'
p4603
(lp4604
I0
aI1
asS'adopts'
p4605
(lp4606
I0
aI1
asS'testing'
p4607
(lp4608
I0
aI1
asS'nfsd'
p4609
(lp4610
I0
aI1
asS'juli'
p4611
(lp4612
I0
aI1
asS'exactly'
p4613
(lp4614
I0
aI1
asS'lists'
p4615
(lp4616
I0
aI1
asS'ehiogu'
p4617
(lp4618
I0
aI1
asS'regards'
p4619
(lp4620
I0
aI1
asS'unsubscribe'
p4621
(lp4622
I0
aI1
asS'july'
p4623
(lp4624
I0
aI1
asS'udo'
p4625
(lp4626
I0
aI1
asS'updating'
p4627
(lp4628
I0
aI1
asS'steel'
p4629
(lp4630
I0
aI1
asS'observed'
p4631
(lp4632
I0
aI1
asS'ben'
p4633
(lp4634
I0
aI1
asS'reseller'
p4635
(lp4636
I0
aI1
asS'dower'
p4637
(lp4638
I0
aI1
asS'submitted'
p4639
(lp4640
I0
aI1
asS'orchestrated'
p4641
(lp4642
I0
aI1
asS'ebays'
p4643
(lp4644
I0
aI1
asS'bet'
p4645
(lp4646
I0
aI1
asS'tabs'
p4647
(lp4648
I0
aI1
asS'cohen'
p4649
(lp4650
I0
aI1
asS'partnership'
p4651
(lp4652
I0
aI1
asS'exojo'
p4653
(lp4654
I0
aI1
asS'dictate'
p4655
(lp4656
I0
aI1
asS'need'
p4657
(lp4658
I0
aI1
asS'intersectedness'
p4659
(lp4660
I0
aI1
asS'border'
p4661
(lp4662
I0
aI1
asS'clearly'
p4663
(lp4664
I0
aI1
asS'afraid'
p4665
(lp4666
I0
aI1
asS'able'
p4667
(lp4668
I0
aI1
asS'mid'
p4669
(lp4670
I0
aI1
asS'adjunct'
p4671
(lp4672
I0
aI1
asS'instance'
p4673
(lp4674
I0
aI1
asS'unbeatable'
p4675
(lp4676
I0
aI1
asS'schemers'
p4677
(lp4678
I0
aI1
asS'hydrocarbon'
p4679
(lp4680
I0
aI1
asS'aprile'
p4681
(lp4682
I0
aI1
asS'worldwide'
p4683
(lp4684
I0
aI1
asS'pyramids'
p4685
(lp4686
I0
aI1
asS'jorge'
p4687
(lp4688
I0
aI1
asS'electirc'
p4689
(lp4690
I0
aI1
asS'tall'
p4691
(lp4692
I0
aI1
asS'device'
p4693
(lp4694
I0
aI1
asS'cabinet'
p4695
(lp4696
I0
aI1
asS'favourites'
p4697
(lp4698
I0
aI1
asS'manoj'
p4699
(lp4700
I0
aI1
asS'volume'
p4701
(lp4702
I0
aI1
asS'hyhuxiikitar'
p4703
(lp4704
I0
aI1
asS'consequences'
p4705
(lp4706
I0
aI1
asS'url'
p4707
(lp4708
I0
aI1
asS'archiving'
p4709
(lp4710
I0
aI1
asS'stranke'
p4711
(lp4712
I0
aI1
asS'clive'
p4713
(lp4714
I0
aI1
asS'face'
p4715
(lp4716
I0
aI1
asS'looked'
p4717
(lp4718
I0
aI1
asS'construction'
p4719
(lp4720
I0
aI1
asS'ygizaboq'
p4721
(lp4722
I0
aI1
asS'se'
p4723
(lp4724
I0
aI1
asS'pictures'
p4725
(lp4726
I0
aI1
asS'normally'
p4727
(lp4728
I0
aI1
asS'fact'
p4729
(lp4730
I0
aI1
asS'brenda'
p4731
(lp4732
I0
aI1
asS'cute'
p4733
(lp4734
I0
aI1
asS'supplementals'
p4735
(lp4736
I0
aI1
asS'text'
p4737
(lp4738
I0
aI1
asS'agreed'
p4739
(lp4740
I0
aI1
asS'gotton'
p4741
(lp4742
I0
aI1
asS'tryed'
p4743
(lp4744
I0
aI1
asS'promote'
p4745
(lp4746
I0
aI1
asS'based'
p4747
(lp4748
I0
aI1
asS'jay'
p4749
(lp4750
I0
aI1
asS'brighter'
p4751
(lp4752
I0
aI1
asS'score'
p4753
(lp4754
I0
aI1
asS'infringers'
p4755
(lp4756
I0
aI1
asS'local'
p4757
(lp4758
I0
aI1
asS'hope'
p4759
(lp4760
I0
aI1
asS'mudama'
p4761
(lp4762
I0
aI1
asS'meant'
p4763
(lp4764
I0
aI1
asS'mga'
p4765
(lp4766
I0
aI1
asS'gibbs'
p4767
(lp4768
I0
aI1
asS'familiar'
p4769
(lp4770
I0
aI1
asS'hopefully'
p4771
(lp4772
I0
aI1
asS'mainborder'
p4773
(lp4774
I0
aI1
asS'zeek'
p4775
(lp4776
I0
aI1
asS'words'
p4777
(lp4778
I0
aI1
asS'buyer'
p4779
(lp4780
I0
aI1
asS'pharmaceutical'
p4781
(lp4782
I0
aI1
asS'areas'
p4783
(lp4784
I0
aI1
asS'evolution'
p4785
(lp4786
I0
aI1
asS'qt'
p4787
(lp4788
I0
aI1
asS'h'
p4789
(lp4790
I0
aI1
asS'taxes'
p4791
(lp4792
I0
aI1
asS'calling'
p4793
(lp4794
I0
aI1
asS'felipe'
p4795
(lp4796
I0
aI1
asS'gromyko'
p4797
(lp4798
I0
aI1
asS'brunotti'
p4799
(lp4800
I0
aI1
asS'fixed'
p4801
(lp4802
I0
aI1
asS'generations'
p4803
(lp4804
I0
aI1
asS'view'
p4805
(lp4806
I0
aI1
asS'madam'
p4807
(lp4808
I0
aI1
asS'btw'
p4809
(lp4810
I0
aI1
asS'official'
p4811
(lp4812
I0
aI1
asS'national'
p4813
(lp4814
I0
aI1
asS'humans'
p4815
(lp4816
I0
aI1
asS'module'
p4817
(lp4818
I0
aI1
asS'multipart'
p4819
(lp4820
I0
aI1
asS'gotten'
p4821
(lp4822
I0
aI1
asS'ralph'
p4823
(lp4824
I0
aI1
asS'tend'
p4825
(lp4826
I0
aI1
asS'written'
p4827
(lp4828
I0
aI1
asS'wembley'
p4829
(lp4830
I0
aI1
asS'bergero'
p4831
(lp4832
I0
aI1
asS'bought'
p4833
(lp4834
I0
aI1
asS'ken'
p4835
(lp4836
I0
aI1
asS'bound'
p4837
(lp4838
I0
aI1
asS'opening'
p4839
(lp4840
I0
aI1
asS'clamav'
p4841
(lp4842
I0
aI1
asS'toner'
p4843
(lp4844
I0
aI1
asS'gotta'
p4845
(lp4846
I0
aI1
asS'job'
p4847
(lp4848
I0
aI1
asS'joe'
p4849
(lp4850
I0
aI1
asS'key'
p4851
(lp4852
I0
aI1
asS'group'
p4853
(lp4854
I0
aI1
asS'configuration'
p4855
(lp4856
I0
aI1
asS'thank'
p4857
(lp4858
I0
aI1
asS'hits'
p4859
(lp4860
I0
aI1
asS'figured'
p4861
(lp4862
I0
aI1
asS'drum'
p4863
(lp4864
I0
aI1
asS'norbert'
p4865
(lp4866
I0
aI1
asS'career'
p4867
(lp4868
I0
aI1
asS'taking'
p4869
(lp4870
I0
aI1
asS'april'
p4871
(lp4872
I0
aI1
asS'eta'
p4873
(lp4874
I0
aI1
asS'ultrasmall'
p4875
(lp4876
I0
aI1
asS'safely'
p4877
(lp4878
I0
aI1
asS'boyer'
p4879
(lp4880
I0
aI1
asS'postilion'
p4881
(lp4882
I0
aI1
asS'wall'
p4883
(lp4884
I0
aI1
asS'tuesday'
p4885
(lp4886
I0
aI1
asS'cd'
p4887
(lp4888
I0
aI1
asS'invisible'
p4889
(lp4890
I0
aI1
asS'guerin'
p4891
(lp4892
I0
aI1
asS'modeling'
p4893
(lp4894
I0
aI1
asS'table'
p4895
(lp4896
I0
aI1
asS'quit'
p4897
(lp4898
I0
aI1
asS'packages'
p4899
(lp4900
I0
aI1
asS'tremendous'
p4901
(lp4902
I0
aI1
asS'decent'
p4903
(lp4904
I0
aI1
asS'bbc'
p4905
(lp4906
I0
aI1
asS'copies'
p4907
(lp4908
I0
aI1
asS'darren'
p4909
(lp4910
I0
aI1
asS'slowly'
p4911
(lp4912
I0
aI1
asS'ah'
p4913
(lp4914
I0
aI1
asS'qualify'
p4915
(lp4916
I0
aI1
asS'degrees'
p4917
(lp4918
I0
aI1
asS'copied'
p4919
(lp4920
I0
aI1
asS'summary'
p4921
(lp4922
I0
aI1
asS'mike'
p4923
(lp4924
I0
aI1
asS'received'
p4925
(lp4926
I0
aI1
asS'eduardo'
p4927
(lp4928
I0
aI1
asS'protect'
p4929
(lp4930
I0
aI1
asS'hmm'
p4931
(lp4932
I0
aI1
asS'bull'
p4933
(lp4934
I0
aI1
asS'smoking'
p4935
(lp4936
I0
aI1
asS'owne'
p4937
(lp4938
I0
aI1
asS'holiday'
p4939
(lp4940
I0
aI1
asS'laser'
p4941
(lp4942
I0
aI1
asS'unlike'
p4943
(lp4944
I0
aI1
asS'plain'
p4945
(lp4946
I0
aI1
asS'rpms'
p4947
(lp4948
I0
aI1
asS'examine'
p4949
(lp4950
I0
aI1
asS'sunray'
p4951
(lp4952
I0
aI1
asS'blakley'
p4953
(lp4954
I0
aI1
asS'slobodana'
p4955
(lp4956
I0
aI1
asS'brickbats'
p4957
(lp4958
I0
aI1
asS'ultra'
p4959
(lp4960
I0
aI1
asS'layer'
p4961
(lp4962
I0
aI1
asS've'
p4963
(lp4964
I0
aI1
asS'resident'
p4965
(lp4966
I0
aI1
asS'royalmeds'
p4967
(lp4968
I0
aI1
asS'site'
p4969
(lp4970
I0
aI1
asS'walmsley'
p4971
(lp4972
I0
aI1
asS'supplieslaser'
p4973
(lp4974
I0
aI1
asS'vp'
p4975
(lp4976
I0
aI1
asS'vs'
p4977
(lp4978
I0
aI1
asS'dual'
p4979
(lp4980
I0
aI1
asS'claimed'
p4981
(lp4982
I0
aI1
asS'bargmann'
p4983
(lp4984
I0
aI1
asS'whore'
p4985
(lp4986
I0
aI1
asS'productivity'
p4987
(lp4988
I0
aI1
asS'juan'
p4989
(lp4990
I0
aI1
asS'oregons'
p4991
(lp4992
I0
aI1
asS'romance'
p4993
(lp4994
I0
aI1
asS'matthew'
p4995
(lp4996
I0
aI1
asS'parts'
p4997
(lp4998
I0
aI1
asS'dickens'
p4999
(lp5000
I0
aI1
asS'largest'
p5001
(lp5002
I0
aI1
asS'party'
p5003
(lp5004
I0
aI1
asS'balcony'
p5005
(lp5006
I0
aI1
asS'difficult'
p5007
(lp5008
I0
aI1
asS'disc'
p5009
(lp5010
I0
aI1
asS'predsednika'
p5011
(lp5012
I0
aI1
asS'http'
p5013
(lp5014
I0
aI1
asS'raymond'
p5015
(lp5016
I0
aI1
asS'rolexexplorer'
p5017
(lp5018
I0
aI1
asS'drink'
p5019
(lp5020
I0
aI1
asS'diploma'
p5021
(lp5022
I0
aI1
asS'jedan'
p5023
(lp5024
I0
aI1
asS'fucked'
p5025
(lp5026
I0
aI1
asS'nation'
p5027
(lp5028
I0
aI1
asS'judgment'
p5029
(lp5030
I0
aI1
asS'scholars'
p5031
(lp5032
I0
aI1
asS'expand'
p5033
(lp5034
I0
aI1
asS'dmesg'
p5035
(lp5036
I0
aI1
asS'correspondent'
p5037
(lp5038
I0
aI1
asS'moneyjudgments'
p5039
(lp5040
I0
aI1
asS'fully'
p5041
(lp5042
I0
aI1
asS'thought'
p5043
(lp5044
I0
aI1
asS'weblog'
p5045
(lp5046
I0
aI1
asS'command'
p5047
(lp5048
I0
aI1
asS'oops'
p5049
(lp5050
I0
aI1
asS'english'
p5051
(lp5052
I0
aI1
asS'ravine'
p5053
(lp5054
I0
aI1
asS'apols'
p5055
(lp5056
I0
aI1
asS'drawing'
p5057
(lp5058
I0
aI1
asS'latest'
p5059
(lp5060
I0
aI1
asS'advertiser'
p5061
(lp5062
I0
aI1
asS'barking'
p5063
(lp5064
I0
aI1
asS'executive'
p5065
(lp5066
I0
aI1
asS'domestic'
p5067
(lp5068
I0
aI1
asS'sources'
p5069
(lp5070
I0
aI1
asS'paul'
p5071
(lp5072
I0
aI1
asS'hess'
p5073
(lp5074
I0
aI1
asS'haande'
p5075
(lp5076
I0
aI1
asS'pcanywhere'
p5077
(lp5078
I0
aI1
asS'wed'
p5079
(lp5080
I0
aI1
asS'navedtra'
p5081
(lp5082
I0
aI1
asS'sky'
p5083
(lp5084
I0
aI1
asS'lake'
p5085
(lp5086
I0
aI1
asS'rebate'
p5087
(lp5088
I0
aI1
asS'wes'
p5089
(lp5090
I0
aI1
asS'youdirectbuy'
p5091
(lp5092
I0
aI1
asS'combine'
p5093
(lp5094
I0
aI1
asS'crack'
p5095
(lp5096
I0
aI1
asS'nate'
p5097
(lp5098
I0
aI1
asS'gmt'
p5099
(lp5100
I0
aI1
asS'government'
p5101
(lp5102
I0
aI1
asS'checking'
p5103
(lp5104
I0
aI1
asS'crud'
p5105
(lp5106
I0
aI1
asS'monique'
p5107
(lp5108
I0
aI1
asS'foster'
p5109
(lp5110
I0
aI1
asS'zimbabwe'
p5111
(lp5112
I0
aI1
asS'know'
p5113
(lp5114
I0
aI1
asS'presume'
p5115
(lp5116
I0
aI1
asS'desk'
p5117
(lp5118
I0
aI1
asS'press'
p5119
(lp5120
I0
aI1
asS'prominent'
p5121
(lp5122
I0
aI1
asS'spamassasin'
p5123
(lp5124
I0
aI1
asS'like'
p5125
(lp5126
I0
aI1
asS'lost'
p5127
(lp5128
I0
aI1
asS'freedombuilder'
p5129
(lp5130
I0
aI1
asS'sivaram'
p5131
(lp5132
I0
aI1
asS'candy'
p5133
(lp5134
I0
aI1
asS'libbrecht'
p5135
(lp5136
I0
aI1
asS'accra'
p5137
(lp5138
I0
aI1
asS'lose'
p5139
(lp5140
I0
aI1
asS'chick'
p5141
(lp5142
I0
aI1
asS'works'
p5143
(lp5144
I0
aI1
asS'page'
p5145
(lp5146
I0
aI1
asS'mohr'
p5147
(lp5148
I0
aI1
asS'kde'
p5149
(lp5150
I0
aI1
asS'library'
p5151
(lp5152
I0
aI1
asS'hair'
p5153
(lp5154
I0
aI1
asS'growth'
p5155
(lp5156
I0
aI1
asS'export'
p5157
(lp5158
I0
aI1
asS'shep'
p5159
(lp5160
I0
aI1
asS'recommendation'
p5161
(lp5162
I0
aI1
asS'home'
p5163
(lp5164
I0
aI1
asS'peter'
p5165
(lp5166
I0
aI1
asS'leery'
p5167
(lp5168
I0
aI1
asS'jeremy'
p5169
(lp5170
I0
aI1
asS'congress'
p5171
(lp5172
I0
aI1
asS'dunes'
p5173
(lp5174
I0
aI1
asS'literally'
p5175
(lp5176
I0
aI1
asS'delightful'
p5177
(lp5178
I0
aI1
asS'joachim'
p5179
(lp5180
I0
aI1
asS'limitations'
p5181
(lp5182
I0
aI1
asS'biology'
p5183
(lp5184
I0
aI1
asS'hose'
p5185
(lp5186
I0
aI1
asS'schedule'
p5187
(lp5188
I0
aI1
asS'dangling'
p5189
(lp5190
I0
aI1
asS'aioanei'
p5191
(lp5192
I0
aI1
asS'journal'
p5193
(lp5194
I0
aI1
asS'reza'
p5195
(lp5196
I0
aI1
asS'usaf'
p5197
(lp5198
I0
aI1
asS'java'
p5199
(lp5200
I0
aI1
asS'rare'
p5201
(lp5202
I0
aI1
asS'justin'
p5203
(lp5204
I0
aI1
asS'getting'
p5205
(lp5206
I0
aI1
asS'freedom'
p5207
(lp5208
I0
aI1
asS'shipping'
p5209
(lp5210
I0
aI1
asS'defragmentation'
p5211
(lp5212
I0
aI1
asS'compatible'
p5213
(lp5214
I0
aI1
asS'monthly'
p5215
(lp5216
I0
aI1
asS'epiphany'
p5217
(lp5218
I0
aI1
asS'swear'
p5219
(lp5220
I0
aI1
asS'insufficient'
p5221
(lp5222
I0
aI1
asS'software'
p5223
(lp5224
I0
aI1
asS'glenn'
p5225
(lp5226
I0
aI1
asS'payment'
p5227
(lp5228
I0
aI1
asS'chris'
p5229
(lp5230
I0
aI1
asS'promise'
p5231
(lp5232
I0
aI1
asS'female'
p5233
(lp5234
I0
aI1
asS'artists'
p5235
(lp5236
I0
aI1
asS'utility'
p5237
(lp5238
I0
aI1
asS'van'
p5239
(lp5240
I0
aI1
asS'additional'
p5241
(lp5242
I0
aI1
asS'hehe'
p5243
(lp5244
I0
aI1
asS'aarp'
p5245
(lp5246
I0
aI1
asS'peters'
p5247
(lp5248
I0
aI1
asS'penisenlargement'
p5249
(lp5250
I0
aI1
asS'breeding'
p5251
(lp5252
I0
aI1
asS'ford'
p5253
(lp5254
I0
aI1
asS'north'
p5255
(lp5256
I0
aI1
asS'shane'
p5257
(lp5258
I0
aI1
asS'bus'
p5259
(lp5260
I0
aI1
asS'brand'
p5261
(lp5262
I0
aI1
asS'delivery'
p5263
(lp5264
I0
aI1
asS'reminds'
p5265
(lp5266
I0
aI1
asS'hi'
p5267
(lp5268
I0
aI1
asS'wealthier'
p5269
(lp5270
I0
aI1
asS'gaim'
p5271
(lp5272
I0
aI1
asS'hm'
p5273
(lp5274
I0
aI1
asS'sprinkling'
p5275
(lp5276
I0
aI1
asS'bug'
p5277
(lp5278
I0
aI1
asS'lynn'
p5279
(lp5280
I0
aI1
asS'fragmentation'
p5281
(lp5282
I0
aI1
asS'messetag'
p5283
(lp5284
I0
aI1
asS'wish'
p5285
(lp5286
I0
aI1
asS'j'
p5287
(lp5288
I0
aI1
asS'hosting'
p5289
(lp5290
I0
aI1
asS'signed'
p5291
(lp5292
I0
aI1
asS'record'
p5293
(lp5294
I0
aI1
asS'problem'
p5295
(lp5296
I0
aI1
asS'nugent'
p5297
(lp5298
I0
aI1
asS'minutes'
p5299
(lp5300
I0
aI1
asS'display'
p5301
(lp5302
I0
aI1
asS'mochlis'
p5303
(lp5304
I0
aI1
asS'irish'
p5305
(lp5306
I0
aI1
asS'zutihyteh'
p5307
(lp5308
I0
aI1
asS'replying'
p5309
(lp5310
I0
aI1
asS'sexually'
p5311
(lp5312
I0
aI1
asS'pid'
p5313
(lp5314
I0
aI1
asS'nri'
p5315
(lp5316
I0
aI1
asS'persistent'
p5317
(lp5318
I0
aI1
asS'noticepending'
p5319
(lp5320
I0
aI1
asS'inn'
p5321
(lp5322
I0
aI1
asS'ink'
p5323
(lp5324
I0
aI1
asS'eric'
p5325
(lp5326
I0
aI1
asS'isdn'
p5327
(lp5328
I0
aI1
asS'jesse'
p5329
(lp5330
I0
aI1
asS'riaa'
p5331
(lp5332
I0
aI1
asS'branch'
p5333
(lp5334
I0
aI1
asS'chemist'
p5335
(lp5336
I0
aI1
asS'francisco'
p5337
(lp5338
I0
aI1
asS'monday'
p5339
(lp5340
I0
aI1
asS'stay'
p5341
(lp5342
I0
aI1
asS'turpin'
p5343
(lp5344
I0
aI1
asS'stan'
p5345
(lp5346
I0
aI1
asS'wind'
p5347
(lp5348
I0
aI1
asS'privileges'
p5349
(lp5350
I0
aI1
asS'debian'
p5351
(lp5352
I0
aI1
asS'cliff'
p5353
(lp5354
I0
aI1
asS'anthony'
p5355
(lp5356
I0
aI1
asS'entertainment'
p5357
(lp5358
I0
aI1
asS'lasted'
p5359
(lp5360
I0
aI1
asS'rule'
p5361
(lp5362
I0
aI1
asS'compete'
p5363
(lp5364
I0
aI1
asS'understand'
p5365
(lp5366
I0
aI1
asS'trims'
p5367
(lp5368
I0
aI1
as.