(lp0
(I01
I0
tp1
a(I01
I1
tp2
a(I01
I1
tp3
a(I01
I1
tp4
a(I01
I0
tp5
a(I01
I1
tp6
a(I01
I0
tp7
a(I01
I0
tp8
a(I01
I1
tp9
a(I01
I1
tp10
a(I01
I0
tp11
a(I01
I0
tp12
a(I01
I1
tp13
a(I01
I1
tp14
a(I01
I1
tp15
a(I01
I1
tp16
a(I01
I1
tp17
a(I01
I0
tp18
a(I01
I0
tp19
a(I01
I1
tp20
a(I01
I1
tp21
a(I01
I1
tp22
a(I01
I0
tp23
a(I01
I1
tp24
a(I01
I0
tp25
a(I01
I1
tp26
a(I01
I1
tp27
a(I01
I1
tp28
a(I01
I0
tp29
a(I01
I0
tp30
a(I01
I0
tp31
a(I01
I0
tp32
a(I01
I1
tp33
a(I01
I1
tp34
a(I01
I1
tp35
a(I01
I1
tp36
a(I01
I0
tp37
a(I01
I0
tp38
a(I01
I1
tp39
a(I01
I1
tp40
a(I01
I0
tp41
a(I01
I1
tp42
a(I01
I1
tp43
a(I01
I0
tp44
a(I01
I1
tp45
a(I01
I1
tp46
a(I01
I1
tp47
a(I01
I1
tp48
a(I01
I0
tp49
a(I01
I0
tp50
a(I01
I1
tp51
a(I01
I1
tp52
a(I01
I0
tp53
a(I01
I1
tp54
a(I01
I1
tp55
a(I01
I1
tp56
a(I01
I1
tp57
a(I01
I0
tp58
a(I01
I1
tp59
a(I01
I1
tp60
a(I01
I0
tp61
a(I01
I0
tp62
a(I01
I0
tp63
a(I01
I1
tp64
a(I01
I1
tp65
a(I01
I0
tp66
a(I01
I1
tp67
a(I01
I1
tp68
a(I01
I1
tp69
a(I01
I1
tp70
a(I01
I0
tp71
a(I01
I1
tp72
a(I01
I1
tp73
a(I01
I0
tp74
a(I01
I0
tp75
a(I01
I0
tp76
a(I01
I1
tp77
a(I01
I0
tp78
a(I01
I1
tp79
a(I01
I0
tp80
a(I01
I1
tp81
a(I01
I1
tp82
a(I01
I1
tp83
a(I01
I1
tp84
a(I01
I1
tp85
a(I01
I1
tp86
a(I01
I1
tp87
a(I01
I0
tp88
a(I01
I0
tp89
a(I01
I1
tp90
a(I01
I1
tp91
a(I01
I0
tp92
a(I01
I1
tp93
a(I01
I0
tp94
a(I01
I0
tp95
a(I01
I0
tp96
a(I01
I0
tp97
a(I01
I0
tp98
a(I01
I1
tp99
a(I01
I1
tp100
a(I01
I1
tp101
a(I01
I1
tp102
a(I01
I0
tp103
a(I01
I0
tp104
a(I01
I0
tp105
a(I01
I1
tp106
a(I01
I0
tp107
a(I01
I1
tp108
a(I01
I1
tp109
a(I01
I0
tp110
a(I01
I0
tp111
a(I01
I0
tp112
a(I01
I1
tp113
a(I01
I0
tp114
a(I01
I0
tp115
a(I01
I0
tp116
a(I01
I1
tp117
a(I01
I0
tp118
a(I01
I0
tp119
a(I01
I1
tp120
a(I01
I1
tp121
a(I01
I0
tp122
a(I01
I1
tp123
a(I01
I0
tp124
a(I01
I1
tp125
a(I01
I1
tp126
a(I01
I0
tp127
a(I01
I1
tp128
a(I01
I0
tp129
a(I01
I1
tp130
a(I01
I1
tp131
a(I01
I0
tp132
a(I01
I0
tp133
a(I01
I0
tp134
a(I01
I1
tp135
a(I01
I0
tp136
a(I01
I1
tp137
a(I01
I1
tp138
a(I01
I0
tp139
a(I01
I1
tp140
a(I01
I0
tp141
a(I01
I0
tp142
a(I01
I0
tp143
a(I01
I0
tp144
a(I01
I1
tp145
a(I01
I1
tp146
a(I01
I0
tp147
a(I01
I1
tp148
a(I01
I0
tp149
a(I01
I1
tp150
a(I01
I1
tp151
a(I01
I1
tp152
a(I01
I0
tp153
a(I01
I1
tp154
a(I01
I1
tp155
a(I01
I0
tp156
a(I01
I1
tp157
a(I01
I1
tp158
a(I01
I1
tp159
a(I01
I1
tp160
a(I01
I1
tp161
a(I01
I1
tp162
a(I01
I0
tp163
a(I01
I1
tp164
a(I01
I0
tp165
a(I01
I1
tp166
a(I01
I1
tp167
a(I01
I1
tp168
a(I01
I1
tp169
a(I01
I0
tp170
a(I01
I1
tp171
a(I01
I1
tp172
a(I01
I1
tp173
a(I01
I0
tp174
a(I01
I1
tp175
a(I01
I1
tp176
a(I01
I1
tp177
a(I01
I1
tp178
a(I01
I1
tp179
a(I01
I1
tp180
a(I01
I1
tp181
a(I01
I1
tp182
a(I01
I0
tp183
a(I01
I0
tp184
a(I01
I0
tp185
a(I01
I0
tp186
a(I01
I1
tp187
a(I01
I0
tp188
a(I01
I1
tp189
a(I01
I0
tp190
a(I01
I0
tp191
a(I01
I0
tp192
a(I01
I1
tp193
a(I01
I1
tp194
a(I01
I0
tp195
a(I01
I1
tp196
a(I01
I1
tp197
a(I01
I1
tp198
a(I01
I1
tp199
a(I01
I1
tp200
a(I01
I0
tp201
a(I01
I0
tp202
a(I01
I0
tp203
a(I01
I0
tp204
a(I01
I0
tp205
a(I01
I0
tp206
a(I01
I1
tp207
a(I01
I0
tp208
a(I01
I0
tp209
a(I01
I1
tp210
a(I01
I0
tp211
a(I01
I1
tp212
a(I01
I0
tp213
a(I01
I0
tp214
a(I01
I1
tp215
a(I01
I1
tp216
a(I01
I1
tp217
a(I01
I0
tp218
a(I01
I1
tp219
a(I01
I1
tp220
a(I01
I1
tp221
a(I01
I1
tp222
a(I01
I1
tp223
a(I01
I1
tp224
a(I01
I1
tp225
a(I01
I1
tp226
a(I01
I1
tp227
a(I01
I1
tp228
a(I01
I0
tp229
a(I01
I0
tp230
a(I01
I0
tp231
a(I01
I0
tp232
a(I01
I0
tp233
a(I01
I1
tp234
a(I01
I0
tp235
a(I01
I0
tp236
a(I01
I1
tp237
a(I01
I0
tp238
a(I01
I1
tp239
a(I01
I0
tp240
a(I01
I1
tp241
a(I01
I1
tp242
a(I01
I1
tp243
a(I01
I0
tp244
a(I01
I1
tp245
a(I01
I0
tp246
a(I01
I0
tp247
a(I01
I1
tp248
a(I01
I0
tp249
a(I01
I1
tp250
a(I01
I1
tp251
a(I01
I0
tp252
a(I01
I0
tp253
a(I01
I0
tp254
a(I01
I0
tp255
a(I01
I1
tp256
a(I01
I1
tp257
a(I01
I1
tp258
a(I01
I0
tp259
a(I01
I1
tp260
a(I01
I0
tp261
a(I01
I1
tp262
a(I01
I0
tp263
a(I01
I1
tp264
a(I01
I0
tp265
a(I01
I0
tp266
a(I01
I1
tp267
a(I01
I1
tp268
a(I01
I1
tp269
a(I01
I0
tp270
a(I01
I1
tp271
a(I01
I1
tp272
a(I01
I0
tp273
a(I01
I0
tp274
a(I01
I1
tp275
a(I01
I1
tp276
a(I01
I1
tp277
a(I01
I0
tp278
a(I01
I0
tp279
a(I01
I1
tp280
a(I01
I1
tp281
a(I01
I1
tp282
a(I01
I0
tp283
a(I01
I1
tp284
a(I01
I1
tp285
a(I01
I1
tp286
a(I01
I1
tp287
a(I01
I1
tp288
a(I01
I1
tp289
a(I01
I1
tp290
a(I01
I1
tp291
a(I01
I1
tp292
a(I01
I1
tp293
a(I01
I1
tp294
a(I01
I0
tp295
a(I01
I1
tp296
a(I01
I1
tp297
a(I01
I0
tp298
a(I01
I0
tp299
a(I01
I1
tp300
a(I01
I0
tp301
a(I01
I1
tp302
a(I01
I0
tp303
a(I01
I1
tp304
a(I01
I1
tp305
a(I01
I1
tp306
a(I01
I0
tp307
a(I01
I0
tp308
a(I01
I1
tp309
a(I01
I0
tp310
a(I01
I1
tp311
a(I01
I1
tp312
a(I01
I1
tp313
a(I01
I1
tp314
a(I01
I1
tp315
a(I01
I0
tp316
a(I01
I0
tp317
a(I01
I0
tp318
a(I01
I0
tp319
a(I01
I1
tp320
a(I01
I0
tp321
a(I01
I1
tp322
a(I01
I0
tp323
a(I01
I0
tp324
a(I01
I1
tp325
a(I01
I1
tp326
a(I01
I1
tp327
a(I01
I1
tp328
a(I01
I1
tp329
a(I01
I1
tp330
a(I01
I0
tp331
a(I01
I0
tp332
a(I01
I0
tp333
a(I01
I1
tp334
a(I01
I1
tp335
a(I01
I1
tp336
a(I01
I1
tp337
a(I01
I1
tp338
a(I01
I1
tp339
a(I01
I0
tp340
a(I01
I1
tp341
a(I01
I0
tp342
a(I01
I1
tp343
a(I01
I0
tp344
a(I01
I1
tp345
a(I01
I1
tp346
a(I01
I0
tp347
a(I01
I1
tp348
a(I01
I0
tp349
a(I01
I0
tp350
a(I01
I0
tp351
a(I01
I1
tp352
a(I01
I0
tp353
a(I01
I1
tp354
a(I01
I1
tp355
a(I01
I0
tp356
a(I01
I0
tp357
a(I01
I0
tp358
a(I01
I1
tp359
a(I01
I1
tp360
a(I01
I1
tp361
a(I01
I1
tp362
a(I01
I1
tp363
a(I01
I1
tp364
a(I01
I0
tp365
a(I01
I1
tp366
a(I01
I1
tp367
a(I01
I0
tp368
a(I01
I1
tp369
a(I01
I0
tp370
a(I01
I1
tp371
a(I01
I1
tp372
a(I01
I1
tp373
a(I01
I1
tp374
a(I01
I0
tp375
a(I01
I1
tp376
a(I01
I1
tp377
a(I01
I1
tp378
a(I01
I1
tp379
a(I01
I1
tp380
a(I01
I1
tp381
a(I01
I1
tp382
a(I01
I1
tp383
a(I01
I1
tp384
a(I01
I0
tp385
a(I01
I1
tp386
a(I01
I1
tp387
a(I01
I0
tp388
a(I01
I1
tp389
a(I01
I1
tp390
a(I01
I1
tp391
a(I01
I1
tp392
a(I01
I1
tp393
a(I01
I0
tp394
a(I01
I1
tp395
a(I01
I1
tp396
a(I01
I1
tp397
a(I01
I1
tp398
a(I01
I1
tp399
a(I01
I1
tp400
a(I01
I1
tp401
a(I01
I1
tp402
a(I01
I1
tp403
a(I01
I1
tp404
a(I01
I1
tp405
a(I01
I1
tp406
a(I01
I1
tp407
a(I01
I1
tp408
a(I01
I0
tp409
a(I01
I1
tp410
a(I01
I1
tp411
a(I01
I1
tp412
a(I01
I1
tp413
a(I01
I1
tp414
a(I01
I0
tp415
a(I01
I1
tp416
a(I01
I0
tp417
a(I01
I1
tp418
a(I01
I1
tp419
a(I01
I1
tp420
a(I01
I1
tp421
a(I01
I1
tp422
a(I01
I0
tp423
a(I01
I1
tp424
a(I01
I0
tp425
a(I01
I1
tp426
a(I01
I1
tp427
a(I01
I1
tp428
a(I01
I0
tp429
a(I01
I1
tp430
a(I01
I1
tp431
a(I01
I1
tp432
a(I01
I1
tp433
a(I01
I1
tp434
a(I01
I1
tp435
a(I01
I1
tp436
a(I01
I0
tp437
a(I01
I0
tp438
a(I01
I1
tp439
a(I01
I1
tp440
a(I01
I1
tp441
a(I01
I1
tp442
a(I01
I0
tp443
a(I01
I0
tp444
a(I01
I1
tp445
a(I01
I1
tp446
a(I01
I1
tp447
a(I01
I0
tp448
a(I01
I1
tp449
a(I01
I0
tp450
a(I01
I0
tp451
a(I01
I1
tp452
a(I01
I0
tp453
a(I01
I0
tp454
a(I01
I0
tp455
a(I01
I1
tp456
a(I01
I0
tp457
a(I01
I0
tp458
a(I01
I1
tp459
a(I01
I1
tp460
a(I01
I0
tp461
a(I01
I0
tp462
a(I01
I0
tp463
a(I01
I1
tp464
a(I01
I1
tp465
a(I01
I1
tp466
a(I01
I0
tp467
a(I01
I1
tp468
a(I01
I0
tp469
a(I01
I1
tp470
a(I01
I0
tp471
a(I01
I0
tp472
a(I01
I1
tp473
a(I01
I1
tp474
a(I01
I0
tp475
a(I01
I0
tp476
a(I01
I0
tp477
a(I01
I1
tp478
a(I01
I0
tp479
a(I01
I0
tp480
a(I01
I1
tp481
a(I01
I0
tp482
a(I01
I1
tp483
a(I01
I0
tp484
a(I01
I0
tp485
a(I01
I1
tp486
a(I01
I1
tp487
a(I01
I0
tp488
a(I01
I0
tp489
a(I01
I0
tp490
a(I01
I1
tp491
a(I01
I1
tp492
a(I01
I1
tp493
a(I01
I1
tp494
a(I01
I1
tp495
a(I01
I0
tp496
a(I01
I1
tp497
a(I01
I1
tp498
a(I01
I0
tp499
a(I01
I1
tp500
a(I01
I0
tp501
a(I01
I0
tp502
a(I01
I1
tp503
a(I01
I1
tp504
a(I01
I1
tp505
a(I01
I0
tp506
a(I01
I1
tp507
a(I01
I1
tp508
a(I01
I0
tp509
a(I01
I1
tp510
a(I01
I1
tp511
a(I01
I1
tp512
a(I01
I1
tp513
a(I01
I0
tp514
a(I01
I0
tp515
a(I01
I1
tp516
a(I01
I0
tp517
a(I01
I0
tp518
a(I01
I1
tp519
a(I01
I1
tp520
a(I01
I1
tp521
a(I01
I1
tp522
a(I01
I1
tp523
a(I01
I1
tp524
a(I01
I1
tp525
a(I01
I0
tp526
a(I01
I1
tp527
a(I01
I1
tp528
a(I01
I1
tp529
a(I01
I0
tp530
a(I01
I0
tp531
a(I01
I0
tp532
a(I01
I1
tp533
a(I01
I1
tp534
a(I01
I0
tp535
a(I01
I0
tp536
a(I01
I0
tp537
a(I01
I1
tp538
a(I01
I1
tp539
a(I01
I0
tp540
a(I01
I0
tp541
a(I01
I1
tp542
a(I01
I1
tp543
a(I01
I1
tp544
a(I01
I1
tp545
a(I01
I0
tp546
a(I01
I0
tp547
a(I01
I0
tp548
a(I01
I1
tp549
a(I01
I0
tp550
a(I01
I1
tp551
a(I01
I1
tp552
a(I01
I1
tp553
a(I01
I0
tp554
a(I01
I0
tp555
a(I01
I1
tp556
a(I01
I0
tp557
a(I01
I1
tp558
a(I01
I0
tp559
a(I01
I1
tp560
a(I01
I0
tp561
a(I01
I1
tp562
a(I01
I1
tp563
a(I01
I1
tp564
a(I01
I0
tp565
a(I01
I0
tp566
a(I01
I0
tp567
a(I01
I0
tp568
a(I01
I1
tp569
a(I01
I0
tp570
a(I01
I0
tp571
a(I01
I1
tp572
a(I01
I0
tp573
a(I01
I1
tp574
a(I01
I0
tp575
a(I01
I1
tp576
a(I01
I0
tp577
a(I01
I0
tp578
a(I01
I1
tp579
a(I01
I0
tp580
a(I01
I1
tp581
a(I01
I0
tp582
a(I01
I0
tp583
a(I01
I1
tp584
a(I01
I1
tp585
a(I01
I0
tp586
a(I01
I1
tp587
a(I01
I1
tp588
a(I01
I1
tp589
a(I01
I0
tp590
a(I01
I0
tp591
a(I01
I0
tp592
a(I01
I1
tp593
a(I01
I0
tp594
a(I01
I1
tp595
a(I01
I1
tp596
a(I01
I1
tp597
a(I01
I1
tp598
a(I01
I0
tp599
a(I01
I0
tp600
a(I01
I0
tp601
a(I01
I0
tp602
a(I01
I1
tp603
a(I01
I0
tp604
a(I01
I0
tp605
a(I01
I0
tp606
a(I01
I0
tp607
a(I01
I0
tp608
a(I01
I0
tp609
a(I01
I1
tp610
a(I01
I1
tp611
a(I01
I0
tp612
a(I01
I1
tp613
a(I01
I0
tp614
a(I01
I1
tp615
a(I01
I1
tp616
a(I01
I1
tp617
a(I01
I0
tp618
a(I01
I1
tp619
a(I01
I1
tp620
a(I01
I1
tp621
a(I01
I0
tp622
a(I01
I0
tp623
a(I01
I1
tp624
a(I01
I0
tp625
a(I01
I1
tp626
a(I01
I1
tp627
a(I01
I0
tp628
a(I01
I1
tp629
a(I01
I1
tp630
a(I01
I1
tp631
a(I01
I1
tp632
a(I01
I0
tp633
a(I01
I0
tp634
a(I01
I0
tp635
a(I01
I1
tp636
a(I01
I1
tp637
a(I01
I1
tp638
a(I01
I0
tp639
a(I01
I1
tp640
a(I01
I1
tp641
a(I01
I1
tp642
a(I01
I0
tp643
a(I01
I1
tp644
a(I01
I0
tp645
a(I01
I1
tp646
a(I01
I1
tp647
a(I01
I0
tp648
a(I01
I1
tp649
a(I01
I0
tp650
a(I01
I1
tp651
a(I01
I1
tp652
a(I01
I1
tp653
a(I01
I1
tp654
a(I01
I1
tp655
a(I01
I0
tp656
a(I01
I0
tp657
a(I01
I0
tp658
a(I01
I1
tp659
a(I01
I0
tp660
a(I01
I0
tp661
a(I01
I0
tp662
a(I01
I0
tp663
a(I01
I1
tp664
a(I01
I1
tp665
a(I01
I1
tp666
a(I01
I1
tp667
a(I01
I1
tp668
a(I01
I1
tp669
a(I01
I0
tp670
a(I01
I1
tp671
a(I01
I1
tp672
a(I01
I0
tp673
a(I01
I1
tp674
a(I01
I1
tp675
a(I01
I0
tp676
a(I01
I1
tp677
a(I01
I1
tp678
a(I01
I1
tp679
a(I01
I0
tp680
a(I01
I1
tp681
a(I01
I1
tp682
a(I01
I1
tp683
a(I01
I1
tp684
a(I01
I1
tp685
a(I01
I1
tp686
a(I01
I0
tp687
a(I01
I0
tp688
a(I01
I1
tp689
a(I01
I0
tp690
a(I01
I0
tp691
a(I01
I1
tp692
a(I01
I1
tp693
a(I01
I1
tp694
a(I01
I0
tp695
a(I01
I0
tp696
a(I01
I1
tp697
a(I01
I1
tp698
a(I01
I1
tp699
a(I01
I1
tp700
a(I01
I1
tp701
a(I01
I1
tp702
a(I01
I0
tp703
a(I01
I0
tp704
a(I01
I0
tp705
a(I01
I1
tp706
a(I01
I0
tp707
a(I01
I0
tp708
a(I01
I1
tp709
a(I01
I0
tp710
a(I01
I1
tp711
a(I01
I1
tp712
a(I01
I1
tp713
a(I01
I1
tp714
a(I01
I1
tp715
a(I01
I1
tp716
a(I01
I0
tp717
a(I01
I1
tp718
a(I01
I1
tp719
a(I01
I1
tp720
a(I01
I1
tp721
a(I01
I0
tp722
a(I01
I0
tp723
a(I01
I0
tp724
a(I01
I1
tp725
a(I01
I1
tp726
a(I01
I1
tp727
a(I01
I1
tp728
a(I01
I1
tp729
a(I01
I1
tp730
a(I01
I0
tp731
a(I01
I1
tp732
a(I01
I1
tp733
a(I01
I0
tp734
a(I01
I1
tp735
a(I01
I1
tp736
a(I01
I0
tp737
a(I01
I1
tp738
a(I01
I0
tp739
a(I01
I0
tp740
a(I01
I1
tp741
a(I01
I0
tp742
a(I01
I1
tp743
a(I01
I0
tp744
a(I01
I1
tp745
a(I01
I1
tp746
a(I01
I1
tp747
a(I01
I0
tp748
a(I01
I1
tp749
a(I01
I1
tp750
a(I01
I1
tp751
a(I01
I1
tp752
a(I01
I1
tp753
a(I01
I1
tp754
a(I01
I0
tp755
a(I01
I1
tp756
a(I01
I1
tp757
a(I01
I1
tp758
a(I01
I0
tp759
a(I01
I0
tp760
a(I01
I1
tp761
a(I01
I0
tp762
a(I01
I0
tp763
a(I01
I0
tp764
a(I01
I0
tp765
a(I01
I1
tp766
a(I01
I1
tp767
a(I01
I1
tp768
a(I01
I1
tp769
a(I01
I0
tp770
a(I01
I1
tp771
a(I01
I1
tp772
a(I01
I0
tp773
a(I01
I1
tp774
a(I01
I0
tp775
a(I01
I1
tp776
a(I01
I1
tp777
a(I01
I0
tp778
a(I01
I1
tp779
a(I01
I1
tp780
a(I01
I0
tp781
a(I01
I1
tp782
a(I01
I0
tp783
a(I01
I0
tp784
a(I01
I0
tp785
a(I01
I1
tp786
a(I01
I1
tp787
a(I01
I0
tp788
a(I01
I1
tp789
a(I01
I1
tp790
a(I01
I1
tp791
a(I01
I1
tp792
a(I01
I1
tp793
a(I01
I1
tp794
a(I01
I1
tp795
a(I01
I1
tp796
a(I01
I1
tp797
a(I01
I1
tp798
a(I01
I1
tp799
a(I01
I0
tp800
a(I01
I0
tp801
a(I01
I1
tp802
a(I01
I0
tp803
a(I01
I1
tp804
a(I01
I0
tp805
a(I01
I0
tp806
a(I01
I1
tp807
a(I01
I1
tp808
a(I01
I1
tp809
a(I01
I1
tp810
a(I01
I1
tp811
a(I01
I1
tp812
a(I01
I0
tp813
a(I01
I0
tp814
a(I01
I1
tp815
a(I01
I0
tp816
a(I01
I0
tp817
a(I01
I1
tp818
a(I01
I1
tp819
a(I01
I1
tp820
a(I01
I1
tp821
a(I01
I0
tp822
a(I01
I1
tp823
a(I01
I1
tp824
a(I01
I1
tp825
a(I01
I0
tp826
a(I01
I1
tp827
a(I01
I1
tp828
a(I01
I0
tp829
a(I01
I0
tp830
a(I01
I0
tp831
a(I01
I0
tp832
a(I01
I1
tp833
a(I01
I1
tp834
a(I01
I0
tp835
a(I01
I1
tp836
a(I01
I0
tp837
a(I01
I1
tp838
a(I01
I0
tp839
a(I01
I1
tp840
a(I01
I0
tp841
a(I01
I0
tp842
a(I01
I0
tp843
a(I01
I0
tp844
a(I01
I1
tp845
a(I01
I1
tp846
a(I01
I1
tp847
a(I01
I1
tp848
a(I01
I1
tp849
a(I01
I1
tp850
a(I01
I1
tp851
a(I01
I0
tp852
a(I01
I1
tp853
a(I01
I1
tp854
a(I01
I1
tp855
a(I01
I0
tp856
a(I01
I1
tp857
a(I01
I0
tp858
a(I01
I1
tp859
a(I01
I1
tp860
a(I01
I1
tp861
a(I01
I1
tp862
a(I01
I0
tp863
a(I01
I1
tp864
a(I01
I1
tp865
a(I01
I1
tp866
a(I01
I0
tp867
a(I01
I0
tp868
a(I01
I0
tp869
a(I01
I1
tp870
a(I01
I0
tp871
a(I01
I1
tp872
a(I01
I0
tp873
a(I01
I1
tp874
a(I01
I1
tp875
a(I01
I0
tp876
a(I01
I0
tp877
a(I01
I0
tp878
a(I01
I1
tp879
a(I01
I0
tp880
a(I01
I1
tp881
a(I01
I1
tp882
a(I01
I1
tp883
a(I01
I1
tp884
a(I01
I1
tp885
a(I01
I1
tp886
a(I01
I0
tp887
a(I01
I1
tp888
a(I01
I1
tp889
a(I01
I1
tp890
a(I01
I1
tp891
a(I01
I0
tp892
a(I01
I0
tp893
a(I01
I1
tp894
a(I01
I0
tp895
a(I01
I0
tp896
a(I01
I0
tp897
a(I01
I1
tp898
a(I01
I0
tp899
a(I01
I1
tp900
a(I01
I0
tp901
a(I01
I1
tp902
a(I01
I0
tp903
a(I01
I0
tp904
a(I01
I0
tp905
a(I01
I1
tp906
a(I01
I1
tp907
a(I01
I0
tp908
a(I01
I1
tp909
a(I01
I1
tp910
a(I01
I1
tp911
a(I01
I0
tp912
a(I01
I0
tp913
a(I01
I1
tp914
a(I01
I1
tp915
a(I01
I1
tp916
a(I01
I1
tp917
a(I01
I1
tp918
a(I01
I0
tp919
a(I01
I0
tp920
a(I01
I0
tp921
a(I01
I1
tp922
a(I01
I1
tp923
a(I01
I0
tp924
a(I01
I0
tp925
a(I01
I0
tp926
a(I01
I0
tp927
a(I01
I1
tp928
a(I01
I1
tp929
a(I01
I0
tp930
a(I01
I1
tp931
a(I01
I1
tp932
a(I01
I0
tp933
a(I01
I0
tp934
a(I01
I1
tp935
a(I01
I1
tp936
a(I01
I1
tp937
a(I01
I1
tp938
a(I01
I1
tp939
a(I01
I1
tp940
a(I01
I1
tp941
a(I01
I0
tp942
a(I01
I1
tp943
a(I01
I0
tp944
a(I01
I1
tp945
a(I01
I1
tp946
a(I01
I1
tp947
a(I01
I1
tp948
a(I01
I1
tp949
a(I01
I1
tp950
a(I01
I0
tp951
a(I01
I1
tp952
a(I01
I1
tp953
a(I01
I0
tp954
a(I01
I1
tp955
a(I01
I0
tp956
a(I01
I0
tp957
a(I01
I0
tp958
a(I01
I1
tp959
a(I01
I0
tp960
a(I01
I1
tp961
a(I01
I0
tp962
a(I01
I1
tp963
a(I01
I0
tp964
a(I01
I1
tp965
a(I01
I1
tp966
a(I01
I1
tp967
a(I01
I0
tp968
a(I01
I1
tp969
a(I01
I0
tp970
a(I01
I1
tp971
a(I01
I1
tp972
a(I01
I0
tp973
a(I01
I0
tp974
a(I01
I0
tp975
a(I01
I1
tp976
a(I01
I0
tp977
a(I01
I1
tp978
a(I01
I0
tp979
a(I01
I1
tp980
a(I01
I1
tp981
a(I01
I0
tp982
a(I01
I0
tp983
a(I01
I0
tp984
a(I01
I0
tp985
a(I01
I0
tp986
a(I01
I0
tp987
a(I01
I1
tp988
a(I01
I1
tp989
a(I01
I1
tp990
a(I01
I1
tp991
a(I01
I1
tp992
a(I01
I1
tp993
a(I01
I0
tp994
a(I01
I1
tp995
a(I01
I1
tp996
a(I01
I1
tp997
a(I01
I1
tp998
a(I01
I1
tp999
a(I01
I0
tp1000
a(I01
I1
tp1001
a(I01
I0
tp1002
a(I01
I1
tp1003
a(I01
I1
tp1004
a(I01
I1
tp1005
a(I01
I1
tp1006
a(I01
I0
tp1007
a(I01
I1
tp1008
a(I01
I0
tp1009
a(I01
I1
tp1010
a(I01
I1
tp1011
a(I01
I0
tp1012
a(I01
I1
tp1013
a(I01
I0
tp1014
a(I01
I0
tp1015
a(I01
I1
tp1016
a(I01
I0
tp1017
a(I01
I1
tp1018
a(I01
I1
tp1019
a(I01
I1
tp1020
a(I01
I0
tp1021
a(I01
I0
tp1022
a(I01
I0
tp1023
a(I01
I1
tp1024
a(I01
I1
tp1025
a(I01
I1
tp1026
a(I01
I1
tp1027
a(I01
I0
tp1028
a(I01
I1
tp1029
a(I01
I0
tp1030
a(I01
I0
tp1031
a(I01
I1
tp1032
a(I01
I1
tp1033
a(I01
I0
tp1034
a(I01
I0
tp1035
a(I01
I1
tp1036
a(I01
I0
tp1037
a(I01
I1
tp1038
a(I01
I0
tp1039
a(I01
I1
tp1040
a(I01
I1
tp1041
a(I01
I0
tp1042
a(I01
I0
tp1043
a(I01
I0
tp1044
a(I01
I0
tp1045
a(I01
I1
tp1046
a(I01
I1
tp1047
a(I01
I1
tp1048
a(I01
I0
tp1049
a(I01
I1
tp1050
a(I01
I1
tp1051
a(I01
I1
tp1052
a(I01
I0
tp1053
a(I01
I1
tp1054
a(I01
I1
tp1055
a(I01
I1
tp1056
a(I01
I0
tp1057
a(I01
I0
tp1058
a(I01
I1
tp1059
a(I01
I0
tp1060
a(I01
I0
tp1061
a(I01
I1
tp1062
a(I01
I0
tp1063
a(I01
I1
tp1064
a(I01
I0
tp1065
a(I01
I1
tp1066
a(I01
I1
tp1067
a(I01
I0
tp1068
a(I01
I1
tp1069
a(I01
I1
tp1070
a(I01
I0
tp1071
a(I01
I1
tp1072
a(I01
I0
tp1073
a(I01
I1
tp1074
a(I01
I0
tp1075
a(I01
I1
tp1076
a(I01
I0
tp1077
a(I01
I0
tp1078
a(I01
I1
tp1079
a(I01
I1
tp1080
a(I01
I0
tp1081
a(I01
I1
tp1082
a(I01
I1
tp1083
a(I01
I1
tp1084
a(I01
I1
tp1085
a(I01
I1
tp1086
a(I01
I1
tp1087
a(I01
I1
tp1088
a(I01
I1
tp1089
a(I01
I1
tp1090
a(I01
I0
tp1091
a(I01
I1
tp1092
a(I01
I0
tp1093
a(I01
I1
tp1094
a(I01
I1
tp1095
a(I01
I0
tp1096
a(I01
I0
tp1097
a(I01
I0
tp1098
a(I01
I1
tp1099
a(I01
I0
tp1100
a(I01
I1
tp1101
a(I01
I1
tp1102
a(I01
I1
tp1103
a(I01
I0
tp1104
a(I01
I0
tp1105
a(I01
I1
tp1106
a(I01
I0
tp1107
a(I01
I1
tp1108
a(I01
I1
tp1109
a(I01
I0
tp1110
a(I01
I0
tp1111
a(I01
I1
tp1112
a(I01
I1
tp1113
a(I01
I0
tp1114
a(I01
I1
tp1115
a(I01
I1
tp1116
a(I01
I0
tp1117
a(I01
I0
tp1118
a(I01
I1
tp1119
a(I01
I0
tp1120
a(I01
I1
tp1121
a(I01
I0
tp1122
a(I01
I1
tp1123
a(I01
I1
tp1124
a(I01
I1
tp1125
a(I01
I1
tp1126
a(I01
I1
tp1127
a(I01
I1
tp1128
a(I01
I1
tp1129
a(I01
I0
tp1130
a(I01
I1
tp1131
a(I01
I0
tp1132
a(I01
I0
tp1133
a(I01
I1
tp1134
a(I01
I1
tp1135
a(I01
I0
tp1136
a(I01
I1
tp1137
a(I01
I1
tp1138
a(I01
I1
tp1139
a(I01
I1
tp1140
a(I01
I1
tp1141
a(I01
I0
tp1142
a(I01
I1
tp1143
a(I01
I1
tp1144
a(I01
I1
tp1145
a(I01
I1
tp1146
a(I01
I0
tp1147
a(I01
I1
tp1148
a(I01
I1
tp1149
a(I01
I1
tp1150
a(I01
I1
tp1151
a(I01
I1
tp1152
a(I01
I0
tp1153
a(I01
I0
tp1154
a(I01
I1
tp1155
a(I01
I0
tp1156
a(I01
I1
tp1157
a(I01
I0
tp1158
a(I01
I1
tp1159
a(I01
I0
tp1160
a(I01
I0
tp1161
a(I01
I0
tp1162
a(I01
I0
tp1163
a(I01
I0
tp1164
a(I01
I1
tp1165
a(I01
I0
tp1166
a(I01
I1
tp1167
a(I01
I0
tp1168
a(I01
I1
tp1169
a(I01
I1
tp1170
a(I01
I1
tp1171
a(I01
I0
tp1172
a(I01
I0
tp1173
a(I01
I1
tp1174
a(I01
I0
tp1175
a(I01
I1
tp1176
a(I01
I1
tp1177
a(I01
I1
tp1178
a(I01
I0
tp1179
a(I01
I0
tp1180
a(I01
I1
tp1181
a(I01
I0
tp1182
a(I01
I1
tp1183
a(I01
I1
tp1184
a(I01
I1
tp1185
a(I01
I0
tp1186
a(I01
I1
tp1187
a(I01
I0
tp1188
a(I01
I1
tp1189
a(I01
I1
tp1190
a(I01
I1
tp1191
a(I01
I1
tp1192
a(I01
I0
tp1193
a(I01
I1
tp1194
a(I01
I1
tp1195
a(I01
I1
tp1196
a(I01
I1
tp1197
a(I01
I1
tp1198
a(I01
I1
tp1199
a(I01
I1
tp1200
a(I01
I0
tp1201
a(I01
I0
tp1202
a(I01
I1
tp1203
a(I01
I0
tp1204
a(I01
I0
tp1205
a(I01
I0
tp1206
a(I01
I1
tp1207
a(I01
I1
tp1208
a(I01
I1
tp1209
a(I01
I1
tp1210
a(I01
I1
tp1211
a(I01
I1
tp1212
a(I01
I1
tp1213
a(I01
I1
tp1214
a(I01
I0
tp1215
a(I01
I1
tp1216
a(I01
I0
tp1217
a(I01
I1
tp1218
a(I01
I1
tp1219
a(I01
I0
tp1220
a(I01
I0
tp1221
a(I01
I1
tp1222
a(I01
I1
tp1223
a(I01
I1
tp1224
a(I01
I0
tp1225
a(I01
I1
tp1226
a(I01
I0
tp1227
a(I01
I1
tp1228
a(I01
I1
tp1229
a(I01
I0
tp1230
a(I01
I0
tp1231
a(I01
I1
tp1232
a(I01
I0
tp1233
a(I01
I1
tp1234
a(I01
I1
tp1235
a(I01
I0
tp1236
a(I01
I0
tp1237
a(I01
I0
tp1238
a(I01
I0
tp1239
a(I01
I1
tp1240
a(I01
I1
tp1241
a(I01
I1
tp1242
a(I01
I0
tp1243
a(I01
I0
tp1244
a(I01
I0
tp1245
a(I01
I1
tp1246
a(I01
I0
tp1247
a(I01
I0
tp1248
a(I01
I1
tp1249
a(I01
I0
tp1250
a(I01
I0
tp1251
a(I01
I0
tp1252
a(I01
I1
tp1253
a(I01
I1
tp1254
a(I01
I0
tp1255
a(I01
I1
tp1256
a(I01
I1
tp1257
a(I01
I1
tp1258
a(I01
I0
tp1259
a(I01
I1
tp1260
a(I01
I1
tp1261
a(I01
I1
tp1262
a(I01
I1
tp1263
a(I01
I1
tp1264
a(I01
I1
tp1265
a(I01
I0
tp1266
a(I01
I0
tp1267
a(I01
I0
tp1268
a(I01
I0
tp1269
a(I01
I0
tp1270
a(I01
I0
tp1271
a(I01
I1
tp1272
a(I01
I1
tp1273
a(I01
I0
tp1274
a(I01
I1
tp1275
a(I01
I0
tp1276
a(I01
I1
tp1277
a(I01
I0
tp1278
a(I01
I1
tp1279
a(I01
I0
tp1280
a(I01
I0
tp1281
a(I01
I1
tp1282
a(I01
I1
tp1283
a(I01
I0
tp1284
a(I01
I0
tp1285
a(I01
I1
tp1286
a(I01
I0
tp1287
a(I01
I1
tp1288
a(I01
I0
tp1289
a(I01
I1
tp1290
a(I01
I0
tp1291
a(I01
I0
tp1292
a(I01
I1
tp1293
a(I01
I0
tp1294
a(I01
I1
tp1295
a(I01
I1
tp1296
a(I01
I1
tp1297
a(I01
I1
tp1298
a(I01
I0
tp1299
a(I01
I1
tp1300
a(I01
I1
tp1301
a(I01
I0
tp1302
a(I01
I0
tp1303
a(I01
I1
tp1304
a(I01
I1
tp1305
a(I01
I1
tp1306
a(I01
I0
tp1307
a(I01
I1
tp1308
a(I01
I1
tp1309
a(I01
I0
tp1310
a(I01
I1
tp1311
a(I01
I1
tp1312
a(I01
I1
tp1313
a(I01
I1
tp1314
a(I01
I1
tp1315
a(I01
I1
tp1316
a(I01
I1
tp1317
a(I01
I0
tp1318
a(I01
I1
tp1319
a(I01
I1
tp1320
a(I01
I1
tp1321
a(I01
I0
tp1322
a(I01
I1
tp1323
a(I01
I1
tp1324
a(I01
I0
tp1325
a(I01
I1
tp1326
a(I01
I1
tp1327
a(I01
I0
tp1328
a(I01
I1
tp1329
a(I01
I0
tp1330
a(I01
I0
tp1331
a(I01
I0
tp1332
a(I01
I1
tp1333
a(I01
I1
tp1334
a(I01
I1
tp1335
a(I01
I0
tp1336
a(I01
I1
tp1337
a(I01
I0
tp1338
a(I01
I0
tp1339
a(I01
I1
tp1340
a(I01
I1
tp1341
a(I01
I0
tp1342
a(I01
I0
tp1343
a(I01
I0
tp1344
a(I01
I1
tp1345
a(I01
I1
tp1346
a(I01
I1
tp1347
a(I01
I1
tp1348
a(I01
I1
tp1349
a(I01
I1
tp1350
a(I01
I0
tp1351
a(I01
I1
tp1352
a(I01
I1
tp1353
a(I01
I0
tp1354
a(I01
I0
tp1355
a(I01
I0
tp1356
a(I01
I1
tp1357
a(I01
I0
tp1358
a(I01
I0
tp1359
a(I01
I1
tp1360
a(I01
I0
tp1361
a(I01
I1
tp1362
a(I01
I1
tp1363
a(I01
I1
tp1364
a(I01
I1
tp1365
a(I01
I0
tp1366
a(I01
I1
tp1367
a(I01
I1
tp1368
a(I01
I1
tp1369
a(I01
I1
tp1370
a(I01
I0
tp1371
a(I01
I1
tp1372
a(I01
I1
tp1373
a(I01
I0
tp1374
a(I01
I0
tp1375
a(I01
I1
tp1376
a(I01
I1
tp1377
a.